(dp1
S'output'
p2
S"<type 'exceptions.SyntaxError'> EOL while scanning string literal (pacientes.py, line 63)"
p3
sS'layer'
p4
S'/home/marcelotheodoro/web2py/applications/web2clinic/controllers/pacientes.py'
p5
sS'code'
p6
S"# -*- coding: utf-8 -*-\n\n\ndef buscar_paciente(id):\n    paciente = db(db.pacientes.id == id).select().first()\n    paciente.nascimento = paciente.nascimento.strftime('%d-%m-%Y')\n    return paciente\n\n\ndef buscar_agendamento(id):\n    agendamento = db(db.agendamentos.id == id).select().first()\n    agendamento.dia = agendamento.dia.strftime('%d-%m-%Y')\n    return agendamento\n\n\ndef buscar_consulta(id):\n    consulta = db(db.consultas.id == id).select().first()\n    return consulta\n\n\ndef buscar_consulta_paciente(id):\n    consulta = db(db.consultas.id_paciente == id).select()\n    return consulta\n\n\ndef buscar(base, id):\n    bases = ['paciente',\n            'agendamento',\n            'consulta',\n            'consulta_paciente']\n    if base not in bases:\n        raise HTTP(403)\n    try:\n        if base == 'paciente':\n            dados = buscar_paciente(id)\n        elif base == 'agendamento':\n            dados = buscar_agendamento(id)\n        elif base == 'consulta':\n            dados = buscar_consulta(id)\n        elif base == 'consulta_paciente':\n            dados = buscar_consulta_paciente(id)\n        else:\n            raise HTTP(404)\n\n        if not dados:\n            raise HTTP(404)\n    except ValueError:\n        raise HTTP(404)\n    return dados\n\n\ndef index():\n    total_pacientes = db(db.pacientes).count()\n    total_agendamentos = db(db.agendamentos).count()\n    total_consultas = db(db.consultas).count()\n\n    itens = [i['form'] for i in tipos_consultas]\n    lista = []\n    for item in itens:\n        x = len(db(db.consultas.tipo_consulta == item).select())\n        if x:\n            label = [i['label'] for i in tipos_consultas if item == i['form']]\n            lista.append({'label': label, qtd': x})\n    return locals()\n\n\ndef cadastrar():\n    form = SQLFORM(db.pacientes)\n    if form.process().accepted:\n        id = form.vars.id\n        redirect(URL(c='pacientes', f='paciente', args=id), client_side=True)\n    return locals()\n\n\ndef paciente():\n    id_paciente = request.args(0) or redirect(URL(c='pacientes',\n                                                    f='pacientes'),\n                                              client_side=True)\n    paciente = buscar('paciente', id_paciente)\n    return locals()\n\n\ndef editar_cadastro():\n    id_paciente = request.args(0) or redirect(URL(c='pacientes',\n                                                  f='pacientes'),\n                                              client_side=True)\n    paciente = buscar('paciente', id_paciente)\n    db.pacientes.id.readable = False\n    form = SQLFORM(db.pacientes, paciente, upload=URL('download'))\n    if form.process().accepted:\n        redirect(URL(c='pacientes', f='paciente', args=id_paciente),\n                 client_side=True)\n    return locals()\n\n\ndef pacientes():\n    links = [lambda row: A(SPAN('Visualizar',\n                                _class='icon magnifier icon-zoom-in\\\n                                        glyphicon glyphicon-zoom-in'),\n                           _class='button btn btn-default',\n                           _href=URL(c='pacientes', f='paciente',\n                                     args=[row.id])),\n             lambda row: A(SPAN('Editar',\n                                _class='icon pen icon-pencil\\\n                                        glyphicon glyphicon-pencil'),\n                           _class='button btn btn-default',\n                           _href=URL(c='pacientes', f='editar_cadastro',\n                                     args=[row.id]))]\n    grid = SQLFORM.grid(db.pacientes,\n                        fields=[db.pacientes.nome, db.pacientes.nascimento,\n                                db.pacientes.sexo],\n                        csv=False, links=links, details=False, create=False,\n                        editable=False, deletable=True)\n    return locals()\n\n\ndef novo_agendamento():\n    links = [lambda row: A(SPAN('Agendar',\n                                _class='icon plus icon-plus\\\n                                        glyphicon glyphicon-plus'),\n                           _class='button btn btn-default',\n                           _href=URL(c='pacientes', f='agendar',\n                                     args=[row.id]))]\n    grid = SQLFORM.grid(db.pacientes,\n                        fields=[db.pacientes.nome, db.pacientes.cpf],\n                        links=links, csv=False, editable=False,\n                        deletable=False, details=False, create=False)\n    return locals()\n\n\ndef agendar():\n    id_paciente = request.args(0) or redirect(URL(c='pacientes',\n                                                  f='novo_agendamento'),\n                                              client_side=True)\n    paciente = buscar('paciente', id_paciente)\n    form = SQLFORM(db.agendamentos)\n    form.vars.id_paciente = id_paciente\n    if form.process().accepted:\n        id = form.vars.id\n        redirect(URL(c='pacientes', f='agendamento', args=id),\n                 client_side=True)\n    return locals()\n\n\ndef editar_agendamento():\n    id_agendamento = request.args(0) or redirect(URL(c='pacientes',\n                                                     f='agendamentos'),\n                                                 client_side=True)\n    agendamento = buscar('agendamento', id_agendamento)\n    db.agendamentos.id.readable = False\n    form = SQLFORM(db.agendamentos, agendamento)\n    if form.process().accepted:\n        redirect(URL(c='pacientes', f='agendamento', args=id_agendamento),\n                 client_side=True)\n    return locals()\n\n\ndef agendamento():\n    id_agendamento = request.args(0) or redirect(URL(c='pacientes',\n                                                     f='agendamentos'),\n                                                 client_side=True)\n    agendamento = buscar('agendamento', id_agendamento)\n    id_paciente = agendamento.id_paciente\n    paciente = buscar('paciente', id_paciente)\n    form = SQLFORM.factory(Field('tipo_consulta',\n                                 requires=IS_IN_SET([i['label']\n                                                    for i in tipos_consultas])\n                                 ))\n    if form.process().accepted:\n        tipo_consulta = form.vars.tipo_consulta\n        tipo_consulta = [i['form'] for i in tipos_consultas\n                         if i['label'] == tipo_consulta][0]\n        redirect(URL(c='pacientes', f='consulta',\n                     args=[tipo_consulta, id_agendamento],\n                     vars=dict(agendamento=True)),\n                 client_side=True)\n    return locals()\n\n\ndef apagar_agendamento():\n    id_agendamento = request.args(0) or redirect(URL(c='pacientes',\n                                                     f='agendamentos'),\n                                                 client_side=True)\n    agendamento = buscar('agendamento', id_agendamento)\n    id_paciente = agendamento.id_paciente\n    paciente = buscar('paciente', id_paciente)\n    form = SQLFORM.factory()\n    if form.process().accepted:\n        db(db.agendamentos.id == id_agendamento).delete()\n        redirect(URL(c='pacientes', f='agendamentos'), client_side=True)\n    return locals()\n\n\ndef agendamentos():\n    agendamentos = db(db.agendamentos).select()\n    lista = []\n    for agendamento in agendamentos:\n        paciente = buscar('paciente', agendamento.id_paciente)\n        lista.append(dict({'dia': agendamento.dia,\n                           'hora_inicio': agendamento.hora_inicio,\n                           'hora_fim': agendamento.hora_fim,\n                           'id_paciente': paciente.id,\n                           'nome': paciente.nome,\n                           'id_agendamento': agendamento.id}))\n    lista = sorted(lista,\n                   key=lambda x: '{0} {1}'.format(x['dia'], x['hora_inicio']))\n    return dict(lista=lista)\n\n\ndef consulta():\n    tipo_consulta = request.args(0) or redirect(URL(c='pacientes',\n                                                    f='agendamentos'))\n    # TODO: gambiarra.start()\n    if request.vars['agendamento'] == 'True':\n        id_agendamento = request.args(1) or redirect(URL(c='pacientes',\n                                                         f='agendamentos'))\n        agendamento = buscar('agendamento', id_agendamento)\n        id_paciente = agendamento.id_paciente\n        paciente = buscar('paciente', id_paciente)\n    elif request.vars['agendamento'] == 'False':\n        id_paciente = request.args(1) or redirect(URL(c='pacientes',\n                                                      f='agendamentos'))\n        paciente = buscar('paciente', id_paciente)\n    else:\n        raise HTTP(404)\n    # TODO: gambiarra.stop()\n    try:\n        tipo_consulta = [i for i in tipos_consultas\n                         if i['form'] == tipo_consulta][0]\n    except IndexError:\n        raise HTTP(404)\n    form = SQLFORM(tipo_consulta['base'])\n    response.view = tipo_consulta['view_form']\n    form.vars.id_paciente = paciente.id\n    if form.process().accepted:\n        id_form = form.vars.id\n        id_insert = db.consultas.insert(id_paciente=paciente.id,\n                                        hora_fim=request.now,\n                                        tipo_consulta=tipo_consulta['form'],\n                                        id_form=id_form)\n        if not id_insert:\n            raise HTTP(500)\n        redirect(URL(c='pacientes', f='ver_consulta', args=id_insert),\n                 client_side=True)\n    return locals()\n\n\ndef consultas():\n    id_paciente = request.args(0) or redirect(URL(c='pacientes',\n                                                  f='todas_consultas'))\n    paciente = buscar('paciente', id_paciente)\n    consultas = buscar('consulta_paciente', id_paciente)\n    for consulta in consultas:\n        consulta.tipo_consulta = [i['label'] for i in tipos_consultas\n                                  if consulta.tipo_consulta == i['form']][0]\n    return locals()\n\n\ndef nova_consulta():\n    links = [lambda row: A('Iniciar consulta', _class='button btn\\\n                                                       btn-default',\n                           _href=URL(c='pacientes', f='consultar',\n                                     args=[row.id]))]\n    grid = SQLFORM.grid(db.pacientes,\n                        fields=[db.pacientes.nome, db.pacientes.cpf],\n                        links=links, csv=False, editable=False,\n                        deletable=False, details=False, create=False)\n    return locals()\n\n\ndef consultar():\n    id_paciente = request.args(0) or redirect(URL(c='pacientes',\n                                                  f='todas_consultas'))\n    paciente = buscar('paciente', id_paciente)\n    form = SQLFORM.factory(Field('tipo_consulta',\n                                 requires=IS_IN_SET([i['label'] for i in\n                                                    tipos_consultas])))\n    if form.process().accepted:\n        tipo_consulta = form.vars.tipo_consulta\n        tipo_consulta_form = [i['form'] for i in tipos_consultas\n                              if tipo_consulta == i['label']][0]\n        redirect(URL(c='pacientes', f='consulta',\n                 args=[tipo_consulta_form, id_paciente],\n                 vars=dict(agendamento=False)), client_side=True)\n    return locals()\n\n\ndef todas_consultas():\n    links = [lambda row: A('Ver consulta', _class='button btn btn-default',\n                           _href=URL(c='pacientes', f='ver_consulta',\n                                     args=[row.id]))]\n    haders = {'consultas.id_paciente': 'Paciente'}\n    db.consultas.id_paciente.readable = True\n    db.consultas.tipo_consulta.represent = lambda value, row: '{0}'.\\\n                                           format([i['label']\n                                                   for i in tipos_consultas\n                                                   if value == i['form']][0])\n    form = SQLFORM.grid(db.consultas,\n                        fields=[db.consultas.id_paciente,\n                                db.consultas.tipo_consulta,\n                                db.consultas.hora_fim],\n                        csv=False, editable=False, deletable=False,\n                        details=False, create=False, links=links,\n                        headers=haders)\n    return locals()\n\n\ndef ver_consulta():\n    id_consulta = request.args(0) or redirect(URL(c='pacientes',\n                                                  f='todas_consultas'))\n    consulta = buscar('consulta', id_consulta)\n    consulta.tipo_consulta = [i['label'] for i in tipos_consultas\n                              if consulta.tipo_consulta == i['form']][0]\n    paciente = buscar('paciente', consulta.id_paciente)\n    return locals()\n\n\ndef prontuario_consulta():\n    id_consulta = request.args(0) or redirect(URL(c='pacientes',\n                                                  f='todas_consultas'))\n    consulta = buscar('consulta', id_consulta)\n    tipo_consulta = consulta.tipo_consulta\n    ficha = [i['base'] for i in tipos_consultas\n             if i['form'] == tipo_consulta][0]\n    formulario = db(ficha.id == consulta.id_form).select().first()\n    response.view = [i['view_prontuario'] for i in tipos_consultas\n                     if i['form'] == tipo_consulta][0]\n    return locals()\n\n\n@cache.action()\ndef download():\n    return response.download(request, db)\n\n\nresponse._vars=response._caller(index)\n"
p7
sS'snapshot'
p8
(dp9
S'exception'
p10
(dp11
S'__getslice__'
p12
S"<method-wrapper '__getslice__' of exceptions.SyntaxError object>"
p13
sS'text'
p14
S'"            lista.append({\'label\': label, qtd\': x})\\n"'
p15
sS'__str__'
p16
S"<method-wrapper '__str__' of exceptions.SyntaxError object>"
p17
sS'__reduce__'
p18
S'<built-in method __reduce__ of exceptions.SyntaxError object>'
p19
sS'__dict__'
p20
S'{}'
p21
sS'__sizeof__'
p22
S'<built-in method __sizeof__ of exceptions.SyntaxError object>'
p23
sS'__init__'
p24
S"<method-wrapper '__init__' of exceptions.SyntaxError object>"
p25
sS'__setattr__'
p26
S"<method-wrapper '__setattr__' of exceptions.SyntaxError object>"
p27
sS'__reduce_ex__'
p28
S'<built-in method __reduce_ex__ of exceptions.SyntaxError object>'
p29
sS'__new__'
p30
S'<built-in method __new__ of type object>'
p31
sS'__format__'
p32
S'<built-in method __format__ of exceptions.SyntaxError object>'
p33
sS'__class__'
p34
S"<type 'exceptions.SyntaxError'>"
p35
sS'filename'
p36
S"'/home/marcelotheodoro/web2py/applications/web2clinic/controllers/pacientes.py'"
p37
sS'lineno'
p38
S'63'
p39
sS'msg'
p40
S"'EOL while scanning string literal'"
p41
sS'__doc__'
p42
S"'Invalid syntax.'"
p43
sS'__getitem__'
p44
S"<method-wrapper '__getitem__' of exceptions.SyntaxError object>"
p45
sS'__setstate__'
p46
S'<built-in method __setstate__ of exceptions.SyntaxError object>'
p47
sS'__getattribute__'
p48
S"<method-wrapper '__getattribute__' of exceptions.SyntaxError object>"
p49
sS'print_file_and_line'
p50
S'None'
p51
sS'args'
p52
S'(\'EOL while scanning string literal\', (\'/home/marcelotheodoro/web2py/applications/web2clinic/controllers/pacientes.py\', 63, 51, "            lista.append({\'label\': label, qtd\': x})\\n"))'
p53
sS'__subclasshook__'
p54
S'<built-in method __subclasshook__ of type object>'
p55
sS'offset'
p56
S'51'
p57
sS'__unicode__'
p58
S'<built-in method __unicode__ of exceptions.SyntaxError object>'
p59
sS'__delattr__'
p60
S"<method-wrapper '__delattr__' of exceptions.SyntaxError object>"
p61
sS'__repr__'
p62
S"<method-wrapper '__repr__' of exceptions.SyntaxError object>"
p63
sS'__hash__'
p64
S"<method-wrapper '__hash__' of exceptions.SyntaxError object>"
p65
ssS'evalue'
p66
S'EOL while scanning string literal (pacientes.py, line 63)'
p67
sS'request'
p68
cgluon.html
XML_unpickle
p69
(S's\x88`\x00\x00<div><table><tr><td style="font-weight:bold;vertical-align:top;">ajax</td><td style="vertical-align:top;">:</td><td><div>False</div></td></tr><tr><td style="font-weight:bold;vertical-align:top;">application</td><td style="vertical-align:top;">:</td><td><div>web2clinic</div></td></tr><tr><td style="font-weight:bold;vertical-align:top;">args</td><td style="vertical-align:top;">:</td><td><div><table></table></div></td></tr><tr><td style="font-weight:bold;vertical-align:top;">cid</td><td style="vertical-align:top;">:</td><td><div>None</div></td></tr><tr><td style="font-weight:bold;vertical-align:top;">client</td><td style="vertical-align:top;">:</td><td><div>127.0.0.1</div></td></tr><tr><td style="font-weight:bold;vertical-align:top;">controller</td><td style="vertical-align:top;">:</td><td><div>pacientes</div></td></tr><tr><td style="font-weight:bold;vertical-align:top;">cookies</td><td style="vertical-align:top;">:</td><td><div><table><tr><td style="font-weight:bold;vertical-align:top;">csrftoken</td><td style="vertical-align:top;">:</td><td><div>TbsXzJA6X3OjayGBx0DFeCzF9FmD6wU7<table><tr><td style="font-weight:bold;vertical-align:top;">comment</td><td style="vertical-align:top;">:</td><td><div></div></td></tr><tr><td style="font-weight:bold;vertical-align:top;">domain</td><td style="vertical-align:top;">:</td><td><div></div></td></tr><tr><td style="font-weight:bold;vertical-align:top;">expires</td><td style="vertical-align:top;">:</td><td><div></div></td></tr><tr><td style="font-weight:bold;vertical-align:top;">httponly</td><td style="vertical-align:top;">:</td><td><div></div></td></tr><tr><td style="font-weight:bold;vertical-align:top;">max-age</td><td style="vertical-align:top;">:</td><td><div></div></td></tr><tr><td style="font-weight:bold;vertical-align:top;">path</td><td style="vertical-align:top;">:</td><td><div></div></td></tr><tr><td style="font-weight:bold;vertical-align:top;">secure</td><td style="vertical-align:top;">:</td><td><div></div></td></tr><tr><td style="font-weight:bold;vertical-align:top;">version</td><td style="vertical-align:top;">:</td><td><div></div></td></tr></table></div></td></tr><tr><td style="font-weight:bold;vertical-align:top;">session_id_admin</td><td style="vertical-align:top;">:</td><td><div>127.0.0.1-88e145a0-6cea-4bf5-a3df-dd7108ddced9<table><tr><td style="font-weight:bold;vertical-align:top;">comment</td><td style="vertical-align:top;">:</td><td><div></div></td></tr><tr><td style="font-weight:bold;vertical-align:top;">domain</td><td style="vertical-align:top;">:</td><td><div></div></td></tr><tr><td style="font-weight:bold;vertical-align:top;">expires</td><td style="vertical-align:top;">:</td><td><div></div></td></tr><tr><td style="font-weight:bold;vertical-align:top;">httponly</td><td style="vertical-align:top;">:</td><td><div></div></td></tr><tr><td style="font-weight:bold;vertical-align:top;">max-age</td><td style="vertical-align:top;">:</td><td><div></div></td></tr><tr><td style="font-weight:bold;vertical-align:top;">path</td><td style="vertical-align:top;">:</td><td><div></div></td></tr><tr><td style="font-weight:bold;vertical-align:top;">secure</td><td style="vertical-align:top;">:</td><td><div></div></td></tr><tr><td style="font-weight:bold;vertical-align:top;">version</td><td style="vertical-align:top;">:</td><td><div></div></td></tr></table></div></td></tr><tr><td style="font-weight:bold;vertical-align:top;">session_id_web2clinic</td><td style="vertical-align:top;">:</td><td><div>127.0.0.1-05d78109-e7f0-4544-ad6d-b06834e13be6<table><tr><td style="font-weight:bold;vertical-align:top;">comment</td><td style="vertical-align:top;">:</td><td><div></div></td></tr><tr><td style="font-weight:bold;vertical-align:top;">domain</td><td style="vertical-align:top;">:</td><td><div></div></td></tr><tr><td style="font-weight:bold;vertical-align:top;">expires</td><td style="vertical-align:top;">:</td><td><div></div></td></tr><tr><td style="font-weight:bold;vertical-align:top;">httponly</td><td style="vertical-align:top;">:</td><td><div></div></td></tr><tr><td style="font-weight:bold;vertical-align:top;">max-age</td><td style="vertical-align:top;">:</td><td><div></div></td></tr><tr><td style="font-weight:bold;vertical-align:top;">path</td><td style="vertical-align:top;">:</td><td><div></div></td></tr><tr><td style="font-weight:bold;vertical-align:top;">secure</td><td style="vertical-align:top;">:</td><td><div></div></td></tr><tr><td style="font-weight:bold;vertical-align:top;">version</td><td style="vertical-align:top;">:</td><td><div></div></td></tr></table></div></td></tr><tr><td style="font-weight:bold;vertical-align:top;">session_id_welcome</td><td style="vertical-align:top;">:</td><td><div>127.0.0.1-31e7606d-96ea-42af-9e82-4aad17afa305<table><tr><td style="font-weight:bold;vertical-align:top;">comment</td><td style="vertical-align:top;">:</td><td><div></div></td></tr><tr><td style="font-weight:bold;vertical-align:top;">domain</td><td style="vertical-align:top;">:</td><td><div></div></td></tr><tr><td style="font-weight:bold;vertical-align:top;">expires</td><td style="vertical-align:top;">:</td><td><div></div></td></tr><tr><td style="font-weight:bold;vertical-align:top;">httponly</td><td style="vertical-align:top;">:</td><td><div></div></td></tr><tr><td style="font-weight:bold;vertical-align:top;">max-age</td><td style="vertical-align:top;">:</td><td><div></div></td></tr><tr><td style="font-weight:bold;vertical-align:top;">path</td><td style="vertical-align:top;">:</td><td><div></div></td></tr><tr><td style="font-weight:bold;vertical-align:top;">secure</td><td style="vertical-align:top;">:</td><td><div></div></td></tr><tr><td style="font-weight:bold;vertical-align:top;">version</td><td style="vertical-align:top;">:</td><td><div></div></td></tr></table></div></td></tr></table></div></td></tr><tr><td style="font-weight:bold;vertical-align:top;">env</td><td style="vertical-align:top;">:</td><td><div><table><tr><td style="font-weight:bold;vertical-align:top;">HTTP_ACCEPT</td><td style="vertical-align:top;">:</td><td><div>text/html,application/xhtml+xml,application/xml;q=0.9,*/*;q=0.8</div></td></tr><tr><td style="font-weight:bold;vertical-align:top;">HTTP_ACCEPT_ENCODING</td><td style="vertical-align:top;">:</td><td><div>gzip, deflate</div></td></tr><tr><td style="font-weight:bold;vertical-align:top;">HTTP_ACCEPT_LANGUAGE</td><td style="vertical-align:top;">:</td><td><div>pt-BR,pt;q=0.8,en-US;q=0.5,en;q=0.3</div></td></tr><tr><td style="font-weight:bold;vertical-align:top;">HTTP_CACHE_CONTROL</td><td style="vertical-align:top;">:</td><td><div>max-age=0</div></td></tr><tr><td style="font-weight:bold;vertical-align:top;">HTTP_CONNECTION</td><td style="vertical-align:top;">:</td><td><div>keep-alive</div></td></tr><tr><td style="font-weight:bold;vertical-align:top;">HTTP_COOKIE</td><td style="vertical-align:top;">:</td><td><div>csrftoken=TbsXzJA6X3OjayGBx0DFeCzF9FmD6wU7; session_id_welcome=127.0.0.1-31e7606d-96ea-42af-9e82-4aad17afa305; session_id_admin=127.0.0.1-88e145a0-6cea-4bf5-a3df-dd7108ddced9; session_id_web2clinic=127.0.0.1-05d78109-e7f0-4544-ad6d-b06834e13be6</div></td></tr><tr><td style="font-weight:bold;vertical-align:top;">HTTP_DNT</td><td style="vertical-align:top;">:</td><td><div>1</div></td></tr><tr><td style="font-weight:bold;vertical-align:top;">HTTP_HOST</td><td style="vertical-align:top;">:</td><td><div>127.0.0.1:8000</div></td></tr><tr><td style="font-weight:bold;vertical-align:top;">HTTP_USER_AGENT</td><td style="vertical-align:top;">:</td><td><div>Mozilla/5.0 (X11; Linux x86_64; rv:38.0) Gecko/20100101 Firefox/38.0 Iceweasel/38.4.0</div></td></tr><tr><td style="font-weight:bold;vertical-align:top;">PATH_INFO</td><td style="vertical-align:top;">:</td><td><div>/web2clinic/pacientes/</div></td></tr><tr><td style="font-weight:bold;vertical-align:top;">QUERY_STRING</td><td style="vertical-align:top;">:</td><td><div></div></td></tr><tr><td style="font-weight:bold;vertical-align:top;">REMOTE_ADDR</td><td style="vertical-align:top;">:</td><td><div>127.0.0.1</div></td></tr><tr><td style="font-weight:bold;vertical-align:top;">REMOTE_PORT</td><td style="vertical-align:top;">:</td><td><div>53086</div></td></tr><tr><td style="font-weight:bold;vertical-align:top;">REQUEST_METHOD</td><td style="vertical-align:top;">:</td><td><div>GET</div></td></tr><tr><td style="font-weight:bold;vertical-align:top;">SCRIPT_NAME</td><td style="vertical-align:top;">:</td><td><div></div></td></tr><tr><td style="font-weight:bold;vertical-align:top;">SERVER_NAME</td><td style="vertical-align:top;">:</td><td><div>mmxx</div></td></tr><tr><td style="font-weight:bold;vertical-align:top;">SERVER_PORT</td><td style="vertical-align:top;">:</td><td><div>8000</div></td></tr><tr><td style="font-weight:bold;vertical-align:top;">SERVER_PROTOCOL</td><td style="vertical-align:top;">:</td><td><div>HTTP/1.1</div></td></tr><tr><td style="font-weight:bold;vertical-align:top;">SERVER_SOFTWARE</td><td style="vertical-align:top;">:</td><td><div>Rocket 1.2.6</div></td></tr><tr><td style="font-weight:bold;vertical-align:top;">app_folders</td><td style="vertical-align:top;">:</td><td><div>set([&#x27;/home/marcelotheodoro/web2py/applications/welcome/&#x27;, &#x27;/home/marcelotheodoro/web2py/applications/admin/&#x27;, &#x27;/home/marcelotheodoro/web2py/applications/web2clinic/&#x27;])</div></td></tr><tr><td style="font-weight:bold;vertical-align:top;">applications_parent</td><td style="vertical-align:top;">:</td><td><div>/home/marcelotheodoro/web2py</div></td></tr><tr><td style="font-weight:bold;vertical-align:top;">cmd_args</td><td style="vertical-align:top;">:</td><td><div><table></table></div></td></tr><tr><td style="font-weight:bold;vertical-align:top;">cmd_options</td><td style="vertical-align:top;">:</td><td><div>&lt;Values at 0x7f2b820edea8: {&#x27;verbose&#x27;: False, &#x27;ip&#x27;: &#x27;127.0.0.1&#x27;, &#x27;debuglevel&#x27;: 30, &#x27;with_scheduler&#x27;: False, &#x27;ips&#x27;: [&#x27;127.0.1.1&#x27;], &#x27;shutdown_timeout&#x27;: 5, &#x27;taskbar&#x27;: False, &#x27;with_coverage&#x27;: False, &#x27;scheduler_groups&#x27;: None, &#x27;port&#x27;: 8000, &#x27;maxthreads&#x27;: None, &#x27;softcron&#x27;: False, &#x27;server_name&#x27;: &#x27;mmxx&#x27;, &#x27;bpython&#x27;: False, &#x27;nogui&#x27;: False, &#x27;pid_filename&#x27;: &#x27;httpserver.pid&#x27;, &#x27;print_errors&#x27;: False, &#x27;extcron&#x27;: False, &#x27;runcron&#x27;: False, &#x27;run_system_tests&#x27;: False, &#x27;test&#x27;: None, &#x27;folder&#x27;: &#x27;/home/marcelotheodoro/web2py&#x27;, &#x27;config&#x27;: &#x27;&#x27;, &#x27;minthreads&#x27;: None, &#x27;shell&#x27;: None, &#x27;run&#x27;: &#x27;&#x27;, &#x27;log_filename&#x27;: &#x27;httpserver.log&#x27;, &#x27;profiler_dir&#x27;: None, &#x27;args&#x27;: [&#x27;&#x27;], &#x27;socket_timeout&#x27;: 5, &#x27;ssl_ca_certificate&#x27;: None, &#x27;scheduler&#x27;: None, &#x27;interfaces&#x27;: None, &#x27;ssl_private_key&#x27;: &#x27;&#x27;, &#x27;gae&#x27;: None, &#x27;password&#x27;: &#x27;123&#x27;, &#x27;request_queue_size&#x27;: 5, &#x27;ssl_certificate&#x27;: &#x27;&#x27;, &#x27;cronjob&#x27;: False, &#x27;numthreads&#x27;: None, &#x27;quiet&#x27;: False, &#x27;import_models&#x27;: False, &#x27;timeout&#x27;: 10, &#x27;plain&#x27;: False, &#x27;nobanner&#x27;: False}&gt;</div></td></tr><tr><td style="font-weight:bold;vertical-align:top;">db_sessions</td><td style="vertical-align:top;">:</td><td><div>set([])</div></td></tr><tr><td style="font-weight:bold;vertical-align:top;">debugging</td><td style="vertical-align:top;">:</td><td><div>False</div></td></tr><tr><td style="font-weight:bold;vertical-align:top;">gluon_parent</td><td style="vertical-align:top;">:</td><td><div>/home/marcelotheodoro/web2py</div></td></tr><tr><td style="font-weight:bold;vertical-align:top;">http_accept</td><td style="vertical-align:top;">:</td><td><div>text/html,application/xhtml+xml,application/xml;q=0.9,*/*;q=0.8</div></td></tr><tr><td style="font-weight:bold;vertical-align:top;">http_accept_encoding</td><td style="vertical-align:top;">:</td><td><div>gzip, deflate</div></td></tr><tr><td style="font-weight:bold;vertical-align:top;">http_accept_language</td><td style="vertical-align:top;">:</td><td><div>pt-BR,pt;q=0.8,en-US;q=0.5,en;q=0.3</div></td></tr><tr><td style="font-weight:bold;vertical-align:top;">http_cache_control</td><td style="vertical-align:top;">:</td><td><div>max-age=0</div></td></tr><tr><td style="font-weight:bold;vertical-align:top;">http_connection</td><td style="vertical-align:top;">:</td><td><div>keep-alive</div></td></tr><tr><td style="font-weight:bold;vertical-align:top;">http_cookie</td><td style="vertical-align:top;">:</td><td><div>csrftoken=TbsXzJA6X3OjayGBx0DFeCzF9FmD6wU7; session_id_welcome=127.0.0.1-31e7606d-96ea-42af-9e82-4aad17afa305; session_id_admin=127.0.0.1-88e145a0-6cea-4bf5-a3df-dd7108ddced9; session_id_web2clinic=127.0.0.1-05d78109-e7f0-4544-ad6d-b06834e13be6</div></td></tr><tr><td style="font-weight:bold;vertical-align:top;">http_dnt</td><td style="vertical-align:top;">:</td><td><div>1</div></td></tr><tr><td style="font-weight:bold;vertical-align:top;">http_host</td><td style="vertical-align:top;">:</td><td><div>127.0.0.1:8000</div></td></tr><tr><td style="font-weight:bold;vertical-align:top;">http_user_agent</td><td style="vertical-align:top;">:</td><td><div>Mozilla/5.0 (X11; Linux x86_64; rv:38.0) Gecko/20100101 Firefox/38.0 Iceweasel/38.4.0</div></td></tr><tr><td style="font-weight:bold;vertical-align:top;">is_jython</td><td style="vertical-align:top;">:</td><td><div>False</div></td></tr><tr><td style="font-weight:bold;vertical-align:top;">is_pypy</td><td style="vertical-align:top;">:</td><td><div>False</div></td></tr><tr><td style="font-weight:bold;vertical-align:top;">is_source</td><td style="vertical-align:top;">:</td><td><div>True</div></td></tr><tr><td style="font-weight:bold;vertical-align:top;">local_hosts</td><td style="vertical-align:top;">:</td><td><div><table><tr><td><div>::1</div></td></tr><tr><td><div>127.0.1.1</div></td></tr><tr><td><div>::ffff:127.0.0.1</div></td></tr><tr><td><div>127.0.0.1</div></td></tr><tr><td><div>mmxx</div></td></tr></table></div></td></tr><tr><td style="font-weight:bold;vertical-align:top;">path_info</td><td style="vertical-align:top;">:</td><td><div>/web2clinic/pacientes/</div></td></tr><tr><td style="font-weight:bold;vertical-align:top;">query_string</td><td style="vertical-align:top;">:</td><td><div></div></td></tr><tr><td style="font-weight:bold;vertical-align:top;">remote_addr</td><td style="vertical-align:top;">:</td><td><div>127.0.0.1</div></td></tr><tr><td style="font-weight:bold;vertical-align:top;">remote_port</td><td style="vertical-align:top;">:</td><td><div>53086</div></td></tr><tr><td style="font-weight:bold;vertical-align:top;">request_method</td><td style="vertical-align:top;">:</td><td><div>GET</div></td></tr><tr><td style="font-weight:bold;vertical-align:top;">request_uri</td><td style="vertical-align:top;">:</td><td><div>/web2clinic/pacientes/</div></td></tr><tr><td style="font-weight:bold;vertical-align:top;">script_name</td><td style="vertical-align:top;">:</td><td><div></div></td></tr><tr><td style="font-weight:bold;vertical-align:top;">server_name</td><td style="vertical-align:top;">:</td><td><div>mmxx</div></td></tr><tr><td style="font-weight:bold;vertical-align:top;">server_port</td><td style="vertical-align:top;">:</td><td><div>8000</div></td></tr><tr><td style="font-weight:bold;vertical-align:top;">server_protocol</td><td style="vertical-align:top;">:</td><td><div>HTTP/1.1</div></td></tr><tr><td style="font-weight:bold;vertical-align:top;">server_software</td><td style="vertical-align:top;">:</td><td><div>Rocket 1.2.6</div></td></tr><tr><td style="font-weight:bold;vertical-align:top;">web2py_path</td><td style="vertical-align:top;">:</td><td><div>/home/marcelotheodoro/web2py</div></td></tr><tr><td style="font-weight:bold;vertical-align:top;">web2py_version</td><td style="vertical-align:top;">:</td><td><div>2.12.3-stable+timestamp.2015.08.19.00.18.03</div></td></tr><tr><td style="font-weight:bold;vertical-align:top;">wsgi.errors</td><td style="vertical-align:top;">:</td><td><div>&lt;open file &#x27;&lt;stderr&gt;&#x27;, mode &#x27;w&#x27; at 0x7f2b85c7d1e0&gt;</div></td></tr><tr><td style="font-weight:bold;vertical-align:top;">wsgi.file_wrapper</td><td style="vertical-align:top;">:</td><td><div>&lt;class wsgiref.util.FileWrapper at 0x7f2b821112c0&gt;</div></td></tr><tr><td style="font-weight:bold;vertical-align:top;">wsgi.input</td><td style="vertical-align:top;">:</td><td><div>&lt;socket._fileobject object at 0x7f2b52776c50&gt;</div></td></tr><tr><td style="font-weight:bold;vertical-align:top;">wsgi.multiprocess</td><td style="vertical-align:top;">:</td><td><div>False</div></td></tr><tr><td style="font-weight:bold;vertical-align:top;">wsgi.multithread</td><td style="vertical-align:top;">:</td><td><div>True</div></td></tr><tr><td style="font-weight:bold;vertical-align:top;">wsgi.run_once</td><td style="vertical-align:top;">:</td><td><div>False</div></td></tr><tr><td style="font-weight:bold;vertical-align:top;">wsgi.url_scheme</td><td style="vertical-align:top;">:</td><td><div>http</div></td></tr><tr><td style="font-weight:bold;vertical-align:top;">wsgi.version</td><td style="vertical-align:top;">:</td><td><div><table><tr><td><div>1</div></td></tr><tr><td><div>0</div></td></tr></table></div></td></tr><tr><td style="font-weight:bold;vertical-align:top;">wsgi_errors</td><td style="vertical-align:top;">:</td><td><div>&lt;open file &#x27;&lt;stderr&gt;&#x27;, mode &#x27;w&#x27; at 0x7f2b85c7d1e0&gt;</div></td></tr><tr><td style="font-weight:bold;vertical-align:top;">wsgi_file_wrapper</td><td style="vertical-align:top;">:</td><td><div>&lt;class wsgiref.util.FileWrapper at 0x7f2b821112c0&gt;</div></td></tr><tr><td style="font-weight:bold;vertical-align:top;">wsgi_input</td><td style="vertical-align:top;">:</td><td><div>&lt;socket._fileobject object at 0x7f2b52776c50&gt;</div></td></tr><tr><td style="font-weight:bold;vertical-align:top;">wsgi_multiprocess</td><td style="vertical-align:top;">:</td><td><div>False</div></td></tr><tr><td style="font-weight:bold;vertical-align:top;">wsgi_multithread</td><td style="vertical-align:top;">:</td><td><div>True</div></td></tr><tr><td style="font-weight:bold;vertical-align:top;">wsgi_run_once</td><td style="vertical-align:top;">:</td><td><div>False</div></td></tr><tr><td style="font-weight:bold;vertical-align:top;">wsgi_url_scheme</td><td style="vertical-align:top;">:</td><td><div>http</div></td></tr><tr><td style="font-weight:bold;vertical-align:top;">wsgi_version</td><td style="vertical-align:top;">:</td><td><div><table><tr><td><div>1</div></td></tr><tr><td><div>0</div></td></tr></table></div></td></tr></table></div></td></tr><tr><td style="font-weight:bold;vertical-align:top;">extension</td><td style="vertical-align:top;">:</td><td><div>html</div></td></tr><tr><td style="font-weight:bold;vertical-align:top;">folder</td><td style="vertical-align:top;">:</td><td><div>/home/marcelotheodoro/web2py/applications/web2clinic/</div></td></tr><tr><td style="font-weight:bold;vertical-align:top;">function</td><td style="vertical-align:top;">:</td><td><div>index</div></td></tr><tr><td style="font-weight:bold;vertical-align:top;">global_settings</td><td style="vertical-align:top;">:</td><td><div><table><tr><td style="font-weight:bold;vertical-align:top;">app_folders</td><td style="vertical-align:top;">:</td><td><div>set([&#x27;/home/marcelotheodoro/web2py/applications/welcome/&#x27;, &#x27;/home/marcelotheodoro/web2py/applications/admin/&#x27;, &#x27;/home/marcelotheodoro/web2py/applications/web2clinic/&#x27;])</div></td></tr><tr><td style="font-weight:bold;vertical-align:top;">applications_parent</td><td style="vertical-align:top;">:</td><td><div>/home/marcelotheodoro/web2py</div></td></tr><tr><td style="font-weight:bold;vertical-align:top;">cmd_args</td><td style="vertical-align:top;">:</td><td><div><table></table></div></td></tr><tr><td style="font-weight:bold;vertical-align:top;">cmd_options</td><td style="vertical-align:top;">:</td><td><div>&lt;Values at 0x7f2b820edea8: {&#x27;verbose&#x27;: False, &#x27;ip&#x27;: &#x27;127.0.0.1&#x27;, &#x27;debuglevel&#x27;: 30, &#x27;with_scheduler&#x27;: False, &#x27;ips&#x27;: [&#x27;127.0.1.1&#x27;], &#x27;shutdown_timeout&#x27;: 5, &#x27;taskbar&#x27;: False, &#x27;with_coverage&#x27;: False, &#x27;scheduler_groups&#x27;: None, &#x27;port&#x27;: 8000, &#x27;maxthreads&#x27;: None, &#x27;softcron&#x27;: False, &#x27;server_name&#x27;: &#x27;mmxx&#x27;, &#x27;bpython&#x27;: False, &#x27;nogui&#x27;: False, &#x27;pid_filename&#x27;: &#x27;httpserver.pid&#x27;, &#x27;print_errors&#x27;: False, &#x27;extcron&#x27;: False, &#x27;runcron&#x27;: False, &#x27;run_system_tests&#x27;: False, &#x27;test&#x27;: None, &#x27;folder&#x27;: &#x27;/home/marcelotheodoro/web2py&#x27;, &#x27;config&#x27;: &#x27;&#x27;, &#x27;minthreads&#x27;: None, &#x27;shell&#x27;: None, &#x27;run&#x27;: &#x27;&#x27;, &#x27;log_filename&#x27;: &#x27;httpserver.log&#x27;, &#x27;profiler_dir&#x27;: None, &#x27;args&#x27;: [&#x27;&#x27;], &#x27;socket_timeout&#x27;: 5, &#x27;ssl_ca_certificate&#x27;: None, &#x27;scheduler&#x27;: None, &#x27;interfaces&#x27;: None, &#x27;ssl_private_key&#x27;: &#x27;&#x27;, &#x27;gae&#x27;: None, &#x27;password&#x27;: &#x27;123&#x27;, &#x27;request_queue_size&#x27;: 5, &#x27;ssl_certificate&#x27;: &#x27;&#x27;, &#x27;cronjob&#x27;: False, &#x27;numthreads&#x27;: None, &#x27;quiet&#x27;: False, &#x27;import_models&#x27;: False, &#x27;timeout&#x27;: 10, &#x27;plain&#x27;: False, &#x27;nobanner&#x27;: False}&gt;</div></td></tr><tr><td style="font-weight:bold;vertical-align:top;">db_sessions</td><td style="vertical-align:top;">:</td><td><div>set([])</div></td></tr><tr><td style="font-weight:bold;vertical-align:top;">debugging</td><td style="vertical-align:top;">:</td><td><div>False</div></td></tr><tr><td style="font-weight:bold;vertical-align:top;">gluon_parent</td><td style="vertical-align:top;">:</td><td><div>/home/marcelotheodoro/web2py</div></td></tr><tr><td style="font-weight:bold;vertical-align:top;">is_jython</td><td style="vertical-align:top;">:</td><td><div>False</div></td></tr><tr><td style="font-weight:bold;vertical-align:top;">is_pypy</td><td style="vertical-align:top;">:</td><td><div>False</div></td></tr><tr><td style="font-weight:bold;vertical-align:top;">is_source</td><td style="vertical-align:top;">:</td><td><div>True</div></td></tr><tr><td style="font-weight:bold;vertical-align:top;">local_hosts</td><td style="vertical-align:top;">:</td><td><div><table><tr><td><div>::1</div></td></tr><tr><td><div>127.0.1.1</div></td></tr><tr><td><div>::ffff:127.0.0.1</div></td></tr><tr><td><div>127.0.0.1</div></td></tr><tr><td><div>mmxx</div></td></tr></table></div></td></tr><tr><td style="font-weight:bold;vertical-align:top;">web2py_version</td><td style="vertical-align:top;">:</td><td><div>2.12.3-stable+timestamp.2015.08.19.00.18.03</div></td></tr></table></div></td></tr><tr><td style="font-weight:bold;vertical-align:top;">is_https</td><td style="vertical-align:top;">:</td><td><div>False</div></td></tr><tr><td style="font-weight:bold;vertical-align:top;">is_local</td><td style="vertical-align:top;">:</td><td><div>True</div></td></tr><tr><td style="font-weight:bold;vertical-align:top;">is_restful</td><td style="vertical-align:top;">:</td><td><div>False</div></td></tr><tr><td style="font-weight:bold;vertical-align:top;">is_sheduler</td><td style="vertical-align:top;">:</td><td><div>None</div></td></tr><tr><td style="font-weight:bold;vertical-align:top;">is_shell</td><td style="vertical-align:top;">:</td><td><div>None</div></td></tr><tr><td style="font-weight:bold;vertical-align:top;">now</td><td style="vertical-align:top;">:</td><td><div>datetime.datetime(2015, 11, 10, 0, 13, 37, 596751)</div></td></tr><tr><td style="font-weight:bold;vertical-align:top;">raw_args</td><td style="vertical-align:top;">:</td><td><div></div></td></tr><tr><td style="font-weight:bold;vertical-align:top;">raw_extension</td><td style="vertical-align:top;">:</td><td><div>None</div></td></tr><tr><td style="font-weight:bold;vertical-align:top;">url</td><td style="vertical-align:top;">:</td><td><div>/web2clinic/pacientes/</div></td></tr><tr><td style="font-weight:bold;vertical-align:top;">utcnow</td><td style="vertical-align:top;">:</td><td><div>datetime.datetime(2015, 11, 10, 2, 13, 37, 596781)</div></td></tr><tr><td style="font-weight:bold;vertical-align:top;">wsgi</td><td style="vertical-align:top;">:</td><td><div>&lt;gluon.main.LazyWSGI object at 0x7f2b522b8d10&gt;</div></td></tr></table></div>'
tRp70
sS'frames'
p71
(lp72
(dp73
S'file'
p74
S'/home/marcelotheodoro/web2py/gluon/restricted.py'
p75
sS'dump'
p76
(dp77
S'code'
p78
S"'# -*- coding: utf-8 -*-\\n\\n\\ndef buscar_paciente(id...st, db)\\n\\n\\nresponse._vars=response._caller(index)\\n'"
p79
sS'layer'
p80
S"'/home/marcelotheodoro/web2py/applications/web2clinic/controllers/pacientes.py'"
p81
sS'global compile2'
p82
S'<function compile2>'
p83
sS'ccode'
p84
S'undefined'
p85
ssS'lnum'
p86
I226
sS'lines'
p87
(dp88
I224
S'            ccode = code'
p89
sI225
S'        else:'
p90
sI226
S'            ccode = compile2(code, layer)'
p91
sI227
S'        exec ccode in environment'
p92
sI228
S'    except HTTP:'
p93
sI229
S'        raise'
p94
sI230
S'    except RestrictedError:'
p95
sI221
S"    environment['__name__'] = '__restricted__'"
p96
sI222
S'    try:'
p97
sI223
S'        if isinstance(code, types.CodeType):'
p98
ssS'call'
p99
S"(code='# -*- coding: utf-8 -*-\\n\\n\\ndef buscar_paciente(id...st, db)\\n\\n\\nresponse._vars=response._caller(index)\\n', environment={'A': <class 'gluon.html.A'>, 'ANY_OF': <class 'gluon.validators.ANY_OF'>, 'ASSIGNJS': <function ASSIGNJS>, 'Auth': <class 'gluon.tools.Auth'>, 'B': <class 'gluon.html.B'>, 'BEAUTIFY': <class 'gluon.html.BEAUTIFY'>, 'BODY': <class 'gluon.html.BODY'>, 'BR': <class 'gluon.html.BR'>, 'BUTTON': <class 'gluon.html.BUTTON'>, 'CAT': <class 'gluon.html.CAT'>, ...}, layer='/home/marcelotheodoro/web2py/applications/web2clinic/controllers/pacientes.py')"
p100
sS'func'
p101
S'restricted'
p102
sa(dp103
g74
S'/home/marcelotheodoro/web2py/gluon/restricted.py'
p104
sg76
(dp105
S'builtincompile'
p106
S'<built-in function compile>'
p107
sS'code'
p108
S"'# -*- coding: utf-8 -*-\\n\\n\\ndef buscar_paciente(id...st, db)\\n\\n\\nresponse._vars=response._caller(index)\\n'"
p109
sS'code.rstrip'
p110
S'<built-in method rstrip of str object>'
p111
sS').replace'
p112
g85
sS'layer'
p113
S"'/home/marcelotheodoro/web2py/applications/web2clinic/controllers/pacientes.py'"
p114
ssg86
I209
sg87
(dp115
I204
S'def compile2(code, layer):'
p116
sI205
S'    """'
p117
sI206
S"    The ``+'\\\\n'`` is necessary else compile fails when code ends in a comment."
p118
sI207
S'    """'
p119
sI208
S''
sI209
S"    return compile(code.rstrip().replace('\\r\\n', '\\n') + '\\n', layer, 'exec')"
p120
sI210
S''
sI211
S''
sI212
S"def restricted(code, environment=None, layer='Unknown'):"
p121
sI213
S'    """'
p122
ssg99
S"(code='# -*- coding: utf-8 -*-\\n\\n\\ndef buscar_paciente(id...st, db)\\n\\n\\nresponse._vars=response._caller(index)\\n', layer='/home/marcelotheodoro/web2py/applications/web2clinic/controllers/pacientes.py')"
p123
sg101
S'compile2'
p124
sasS'pyver'
p125
S'Python 2.7.9: /usr/bin/python (prefix: /usr)'
p126
sS'session'
p127
g69
(S's\x1a\x00\x00\x00<div><table></table></div>'
tRp128
sS'etype'
p129
S"<type 'exceptions.SyntaxError'>"
p130
sS'date'
p131
S'Tue Nov 10 00:13:37 2015'
p132
sS'response'
p133
g69
(S's\xcb\x1f\x00\x00<div><table><tr><td style="font-weight:bold;vertical-align:top;">body</td><td style="vertical-align:top;">:</td><td><div>&lt;cStringIO.StringO object at 0x7f2b528cd180&gt;</div></td></tr><tr><td style="font-weight:bold;vertical-align:top;">cookies</td><td style="vertical-align:top;">:</td><td><div><table><tr><td style="font-weight:bold;vertical-align:top;">session_id_web2clinic</td><td style="vertical-align:top;">:</td><td><div>127.0.0.1-05d78109-e7f0-4544-ad6d-b06834e13be6<table><tr><td style="font-weight:bold;vertical-align:top;">comment</td><td style="vertical-align:top;">:</td><td><div></div></td></tr><tr><td style="font-weight:bold;vertical-align:top;">domain</td><td style="vertical-align:top;">:</td><td><div></div></td></tr><tr><td style="font-weight:bold;vertical-align:top;">expires</td><td style="vertical-align:top;">:</td><td><div></div></td></tr><tr><td style="font-weight:bold;vertical-align:top;">httponly</td><td style="vertical-align:top;">:</td><td><div></div></td></tr><tr><td style="font-weight:bold;vertical-align:top;">max-age</td><td style="vertical-align:top;">:</td><td><div></div></td></tr><tr><td style="font-weight:bold;vertical-align:top;">path</td><td style="vertical-align:top;">:</td><td><div>/</div></td></tr><tr><td style="font-weight:bold;vertical-align:top;">secure</td><td style="vertical-align:top;">:</td><td><div></div></td></tr><tr><td style="font-weight:bold;vertical-align:top;">version</td><td style="vertical-align:top;">:</td><td><div></div></td></tr></table></div></td></tr></table></div></td></tr><tr><td style="font-weight:bold;vertical-align:top;">delimiters</td><td style="vertical-align:top;">:</td><td><div><table><tr><td><div>{{</div></td></tr><tr><td><div>}}</div></td></tr></table></div></td></tr><tr><td style="font-weight:bold;vertical-align:top;">files</td><td style="vertical-align:top;">:</td><td><div><table></table></div></td></tr><tr><td style="font-weight:bold;vertical-align:top;">flash</td><td style="vertical-align:top;">:</td><td><div></div></td></tr><tr><td style="font-weight:bold;vertical-align:top;">form_label_separator</td><td style="vertical-align:top;">:</td><td><div></div></td></tr><tr><td style="font-weight:bold;vertical-align:top;">formstyle</td><td style="vertical-align:top;">:</td><td><div>bootstrap3_inline</div></td></tr><tr><td style="font-weight:bold;vertical-align:top;">generic_patterns</td><td style="vertical-align:top;">:</td><td><div><table><tr><td><div>*</div></td></tr></table></div></td></tr><tr><td style="font-weight:bold;vertical-align:top;">headers</td><td style="vertical-align:top;">:</td><td><div><table><tr><td style="font-weight:bold;vertical-align:top;">X-Powered-By</td><td style="vertical-align:top;">:</td><td><div>web2py</div></td></tr></table></div></td></tr><tr><td style="font-weight:bold;vertical-align:top;">menu</td><td style="vertical-align:top;">:</td><td><div><table><tr><td><div><table><tr><td><div>Home</div></td></tr><tr><td><div>False</div></td></tr><tr><td><div>/web2clinic/pacientes/index</div></td></tr><tr><td><div><table></table></div></td></tr></table></div></td></tr><tr><td><div><table><tr><td><div>Agendamentos</div></td></tr><tr><td><div>False</div></td></tr><tr><td><div>/web2clinic/pacientes/#</div></td></tr><tr><td><div><table><tr><td><div><table><tr><td><div>Novo agendamento</div></td></tr><tr><td><div>False</div></td></tr><tr><td><div>/web2clinic/pacientes/novo_agendamento</div></td></tr></table></div></td></tr><tr><td><div><table><tr><td><div>Ver todos agendamentos</div></td></tr><tr><td><div>False</div></td></tr><tr><td><div>/web2clinic/pacientes/agendamentos</div></td></tr></table></div></td></tr></table></div></td></tr></table></div></td></tr><tr><td><div><table><tr><td><div>Pacientes</div></td></tr><tr><td><div>False</div></td></tr><tr><td><div>/web2clinic/pacientes/#</div></td></tr><tr><td><div><table><tr><td><div><table><tr><td><div>Novo cadastro</div></td></tr><tr><td><div>False</div></td></tr><tr><td><div>/web2clinic/pacientes/cadastrar</div></td></tr></table></div></td></tr><tr><td><div><table><tr><td><div>Todos cadastros</div></td></tr><tr><td><div>False</div></td></tr><tr><td><div>/web2clinic/pacientes/pacientes</div></td></tr></table></div></td></tr></table></div></td></tr></table></div></td></tr><tr><td><div><table><tr><td><div>Consultas</div></td></tr><tr><td><div>False</div></td></tr><tr><td><div>/web2clinic/pacientes/#</div></td></tr><tr><td><div><table><tr><td><div><table><tr><td><div>Nova consulta</div></td></tr><tr><td><div>False</div></td></tr><tr><td><div>/web2clinic/pacientes/nova_consulta</div></td></tr></table></div></td></tr><tr><td><div><table><tr><td><div>Todas consultas</div></td></tr><tr><td><div>False</div></td></tr><tr><td><div>/web2clinic/pacientes/todas_consultas</div></td></tr></table></div></td></tr></table></div></td></tr></table></div></td></tr></table></div></td></tr><tr><td style="font-weight:bold;vertical-align:top;">meta</td><td style="vertical-align:top;">:</td><td><div><table></table></div></td></tr><tr><td style="font-weight:bold;vertical-align:top;">models_to_run</td><td style="vertical-align:top;">:</td><td><div><table><tr><td><div>^\\w+\\.py$</div></td></tr><tr><td><div>^pacientes/\\w+\\.py$</div></td></tr><tr><td><div>^pacientes/index/\\w+\\.py$</div></td></tr></table></div></td></tr><tr><td style="font-weight:bold;vertical-align:top;">postprocessing</td><td style="vertical-align:top;">:</td><td><div><table></table></div></td></tr><tr><td style="font-weight:bold;vertical-align:top;">session_client</td><td style="vertical-align:top;">:</td><td><div>127.0.0.1</div></td></tr><tr><td style="font-weight:bold;vertical-align:top;">session_cookie_compression_level</td><td style="vertical-align:top;">:</td><td><div>None</div></td></tr><tr><td style="font-weight:bold;vertical-align:top;">session_cookie_expires</td><td style="vertical-align:top;">:</td><td><div>None</div></td></tr><tr><td style="font-weight:bold;vertical-align:top;">session_cookie_key</td><td style="vertical-align:top;">:</td><td><div>None</div></td></tr><tr><td style="font-weight:bold;vertical-align:top;">session_data_name</td><td style="vertical-align:top;">:</td><td><div>session_data_web2clinic</div></td></tr><tr><td style="font-weight:bold;vertical-align:top;">session_file</td><td style="vertical-align:top;">:</td><td><div>&lt;open file &#x27;/home/marcelotheodoro/web2py/applications/web2clinic/sessions/164/022/127.0.0.1-05d78109-e7f0-4544-ad6d-b06834e13be6&#x27;, mode &#x27;rb+&#x27; at 0x7f2b527ae660&gt;</div></td></tr><tr><td style="font-weight:bold;vertical-align:top;">session_filename</td><td style="vertical-align:top;">:</td><td><div>/home/marcelotheodoro/web2py/applications/web2clinic/sessions/127.0.0.1-05d78109-e7f0-4544-ad6d-b06834e13be6</div></td></tr><tr><td style="font-weight:bold;vertical-align:top;">session_hash</td><td style="vertical-align:top;">:</td><td><div>9edb695f1ca871a5bb8a80396fed841b</div></td></tr><tr><td style="font-weight:bold;vertical-align:top;">session_id</td><td style="vertical-align:top;">:</td><td><div>127.0.0.1-05d78109-e7f0-4544-ad6d-b06834e13be6</div></td></tr><tr><td style="font-weight:bold;vertical-align:top;">session_id_name</td><td style="vertical-align:top;">:</td><td><div>session_id_web2clinic</div></td></tr><tr><td style="font-weight:bold;vertical-align:top;">session_locked</td><td style="vertical-align:top;">:</td><td><div>True</div></td></tr><tr><td style="font-weight:bold;vertical-align:top;">session_masterapp</td><td style="vertical-align:top;">:</td><td><div>web2clinic</div></td></tr><tr><td style="font-weight:bold;vertical-align:top;">session_new</td><td style="vertical-align:top;">:</td><td><div>False</div></td></tr><tr><td style="font-weight:bold;vertical-align:top;">session_storage_type</td><td style="vertical-align:top;">:</td><td><div>file</div></td></tr><tr><td style="font-weight:bold;vertical-align:top;">status</td><td style="vertical-align:top;">:</td><td><div>200</div></td></tr><tr><td style="font-weight:bold;vertical-align:top;">view</td><td style="vertical-align:top;">:</td><td><div>pacientes/index.html</div></td></tr></table></div>'
tRp134
sS'locals'
p135
(dp136
g4
S"'/home/marcelotheodoro/web2py/applications/web2clinic/controllers/pacientes.py'"
p137
sg6
S"'# -*- coding: utf-8 -*-\\n\\n\\ndef buscar_paciente(id...st, db)\\n\\n\\nresponse._vars=response._caller(index)\\n'"
p138
sssS'traceback'
p139
S'Traceback (most recent call last):\n  File "/home/marcelotheodoro/web2py/gluon/restricted.py", line 226, in restricted\n    ccode = compile2(code, layer)\n  File "/home/marcelotheodoro/web2py/gluon/restricted.py", line 209, in compile2\n    return compile(code.rstrip().replace(\'\\r\\n\', \'\\n\') + \'\\n\', layer, \'exec\')\n  File "/home/marcelotheodoro/web2py/applications/web2clinic/controllers/pacientes.py", line 63\n    lista.append({\'label\': label, qtd\': x})\n                                          ^\nSyntaxError: EOL while scanning string literal\n'
p140
s.