(dp1
S'output'
p2
S"<type 'exceptions.KeyError'> 'Cannot resolve reference  in retorno definition'"
p3
sS'layer'
p4
S'/home/marcelotheodoro/web2py/applications/web2clinic/models/3formularios.py'
p5
sS'code'
p6
S"\ndb.define_table('ficha_clinica_mulher',\n                Field('id_paciente', 'reference pacientes',\n                    writable=False, readable=False),\n                Field('queixa', type='text'),\n                Field('hpma', type='text'),\n                Field('cardiovascular_ISDA'),\n                Field('gastrointestinal_ISDA'),\n                Field('urinario_ISDA'),\n                Field('respiratorio_ISDA'),\n                Field('cardiovascular_AF'),\n                Field('endocrino_metabolico_AF'),\n                Field('cancer_AF'),\n                Field('infeccao_AF'),\n                Field('outros_AF'),\n                Field('clinicos_AP'),\n                Field('cirurgias_AP'),\n                Field('tabagismo_AP'),\n                Field('etilismo_AP'),\n                Field('medicacao_AP'),\n                Field('outros_AP'),\n                Field('menarca_AM'),\n                Field('ciclos_AM'),\n                Field('dum_AM'),\n                Field('dismenorreia_AM'),\n                Field('tpm_AM'),\n                Field('menopausa_AM',\n                    requires=IS_EMPTY_OR(IS_IN_SET(['Natural', 'Cir\xc3\xbargica'])),\n                    widget=SQLFORM.widgets.radio.widget),\n                Field('primeiro_coito_AS'),\n                Field('numero_parceiros_AS'),\n                Field('libido_AS'),\n                Field('orgasmos_AS'),\n                Field('anticoncepcao_AS'),\n                Field('corrimento_AG'),\n                Field('cirurgia_AG'),\n                Field('cauterizacao_AG'),\n                Field('g_AO'),\n                Field('p_AO'),\n                Field('a_AO'),\n                Field('pnl_AO'),\n                Field('pc_AO'),\n                Field('pf_AO'),\n                Field('primeiro_parto_AO'),\n                Field('ultimo_parto_AO'),\n                Field('peso_rn_maior_AO'),\n                Field('amamentacao_AO'),\n                Field('puerperio_AO'),\n                Field('peso_EXAME'),\n                Field('alt_EXAME'),\n                Field('pa_EXAME'),\n                Field('imc_EXAME'),\n                Field('ap_cardiovascular_EXAME'),\n                Field('ap_respiratorio_EXAME'),\n                Field('mmii_EXAME'),\n                Field('outros_EXAME'),\n                Field('abdome_EXAME'),\n                Field('insp_estatica_MAMAS'),\n                Field('insp_dinamica_MAMAS'),\n                Field('palpacao_MAMAS'),\n                Field('expressao_MAMAS'),\n                Field('axilas_MAMAS'),\n                Field('pilificacao_OGE'),\n                Field('labios_OGE'),\n                Field('clitoris_OGE'),\n                Field('ureta_OGE'),\n                Field('gl_bartholin_OGE'),\n                Field('himen_OGE'),\n                Field('procidencia_pva_OGE'),\n                Field('procidencia_pvp_OGE'),\n                Field('perineo'),\n                Field('perda_urina'),\n                Field('vagina_OGI_TOQUE'),\n                Field('colo_OGI_TOQUE'),\n                Field('utero_OGI_TOQUE'),\n                Field('an_d_OGI_TOQUE'),\n                Field('na_e_OGI_TOQUE'),\n                Field('parametrios_OGI_TOQUE'),\n                Field('reto_OGI_TOQUE'),\n                Field('vagina_ESPECULAR'),\n                Field('colo_ESPECULAR'),\n                Field('cont_vaginal_ESPECULAR'),\n                Field('tracao_colo_OUTROS_EXAMES'),\n                Field('histerometria_OUTROS_EXAMES'),\n                Field('diagnostico_clinico_OUTROS_EXAMES'),\n                Field('exames_solicitados_OUTROS_EXAMES'),\n                Field('conduta_OUTROS_EXAMES'),\n                )\n\n\ndb.define_table('ficha_clinica_de_climaterio',\n                Field('id_paciente', 'reference pacientes',\n                    writable=False, readable=False),\n                Field('motivo_consulta', type='text'),\n                Field('hipertensao', widget=SQLFORM.widgets.boolean.widget),\n                Field('hipertensao_texto'),\n                Field('tireoidopatia', widget=SQLFORM.widgets.boolean.widget),\n                Field('tireoidopatia_texto'),\n                Field('tromboflebite', widget=SQLFORM.widgets.boolean.widget),\n                Field('tromboflebite_texto'),\n                Field('gastriste_colocistopatia',\n                    widget=SQLFORM.widgets.boolean.widget),\n                Field('gastriste_colocistopatia_texto'),\n                Field('doenca_cardio_cerebrovascular',\n                    widget=SQLFORM.widgets.boolean.widget),\n                Field('doenca_cardio_cerebrovascular_texto'),\n                Field('nefropatia', widget=SQLFORM.widgets.boolean.widget),\n                Field('nefropatia_texto'),\n                Field('cirugia', widget=SQLFORM.widgets.boolean.widget),\n                Field('cirugia_texto'),\n                Field('tabagismo', widget=SQLFORM.widgets.boolean.widget),\n                Field('tabagismo_texto'),\n                Field('medicacao_em_uso',\n                    widget=SQLFORM.widgets.boolean.widget),\n                Field('medicacao_em_uso_texto'),\n                Field('atividade_fisica',\n                    widget=SQLFORM.widgets.boolean.widget),\n                Field('atividade_fisica_texto'),\n                Field('hepatopatia', widget=SQLFORM.widgets.boolean.widget),\n                Field('hepatopatia_texto'),\n                Field('cancer', widget=SQLFORM.widgets.boolean.widget),\n                Field('cancer_texto'),\n                Field('etilismo', widget=SQLFORM.widgets.boolean.widget),\n                Field('etilismo_texto'),\n                Field('neuro_psquiatrico',\n                    widget=SQLFORM.widgets.boolean.widget),\n                Field('neuro_psquiatrico_texto'),\n                Field('cancer_de_mama',\n                    widget=SQLFORM.widgets.boolean.widget),\n                Field('cancer_de_ovario',\n                    widget=SQLFORM.widgets.boolean.widget),\n                Field('cancer_de_utero',\n                    widget=SQLFORM.widgets.boolean.widget),\n                Field('cancer_de_colon',\n                    widget=SQLFORM.widgets.boolean.widget),\n                Field('osteoporose', widget=SQLFORM.widgets.boolean.widget),\n                Field('cardio_cerebrovascular',\n                    widget=SQLFORM.widgets.boolean.widget),\n                Field('outros_AF', widget=SQLFORM.widgets.boolean.widget),\n                Field('menarca', widget=SQLFORM.widgets.boolean.widget),\n                Field('menarca_texto'),\n                Field('ciclos_regulares',\n                        widget=SQLFORM.widgets.boolean.widget),\n                Field('ciclos_regulares_texto'),\n                Field('atividade_sexual',\n                        widget=SQLFORM.widgets.boolean.widget),\n                Field('atividade_sexual_texto'),\n                Field('dum'),\n                Field('g_AT'),\n                Field('p_AT'),\n                Field('pnl_AT'),\n                Field('pc_AT'),\n                Field('pf_AT'),\n                Field('idade_menopausa'),\n                Field('tempo_menopausa'),\n                Field('tipo_menopausa', requires=IS_EMPTY_OR(IS_IN_SET(\n                        ['Natural', 'Cir\xc3\xbargica', 'Radioter\xc3\xa1pica',\n                            'Quimioter\xc3\xa1pia']))),\n                Field('histerectomia', widget=SQLFORM.widgets.boolean.widget),\n                Field('ooforectoma_bilateral',\n                        widget=SQLFORM.widgets.boolean.widget),\n                Field('pipula', widget=SQLFORM.widgets.boolean.widget),\n                Field('pipula_texto'),\n                Field('reposicao_hormonal',\n                        widget=SQLFORM.widgets.boolean.widget),\n                Field('reposicao_hormonal_texto'),\n                Field('peso'),\n                Field('altura'),\n                Field('imc'),\n                Field('pa'),\n                Field('MAMAS_inspecao'),\n                Field('MAMAS_palpacao'),\n                Field('MAMAS_axila'),\n                Field('abdome'),\n                Field('oge'),\n                Field('ogi_vagina'),\n                Field('colo'),\n                Field('corpo_do_utero'),\n                Field('anexos'),\n                Field('toque_retal'),\n                Field('teste_progesterona', requires=IS_EMPTY_OR(\n                    IS_IN_SET(['Positivo', 'Negativo'])),\n                    widget=SQLFORM.widgets.radio.widget),\n                Field('teste_progesterona_data'),\n                Field('colpocitologia_oncologica'),\n                Field('im'),\n                Field('im_data'),\n                Field('mamografia'),\n                Field('mamografia_data'),\n                Field('glicemia'),\n                Field('colesterou_total'),\n                Field('hdl'),\n                Field('ldl'),\n                Field('triglicerides'),\n                Field('ultra_sonografia_transvaginal'),\n                Field('ultra_sonografia_transvaginal_data'),\n                Field('densitometria_ossea'),\n                Field('densitometria_ossea_data'),\n                Field('dosagens_hormonais'),\n                Field('dosagens_hormonais_data'),\n                Field('consulta_outro_especialista',\n                        widget=SQLFORM.widgets.boolean.widget),\n                Field('consulta_outro_especialista_texto'),\n                Field('diagnostico_clinico', type='text'),\n                Field('orientacao_terapeutica', type='text'),\n                Field('pa_EVOLUCAO'),\n                Field('peso_EVOLUCAO'),\n                Field('altura_EVOLUCAO'),\n                Field('imc_EVOLUCAO'),\n                Field('texto_EVOLUCAO', type='text'),\n                )\n\n\ndb.define_table('ficha_clinica_de_anticoncepcao',\n                Field('id_paciente', 'reference pacientes',\n                    writable=False, readable=False),\n                Field('queixa', type='text'),\n                Field('hpma', type='text'),\n                Field('hipertensao_arterial_AF',\n                    widget=SQLFORM.widgets.boolean.widget),\n                Field('diabetes_AF', widget=SQLFORM.widgets.boolean.widget),\n                Field('cardiopatia_AF',\n                    widget=SQLFORM.widgets.boolean.widget),\n                Field('cancer_AF', widget=SQLFORM.widgets.boolean.widget),\n                Field('tipo_cancer_AF'),\n                Field('neurologico_AP',\n                    widget=SQLFORM.widgets.boolean.widget),\n                Field('cardiovasculares_AP',\n                    widget=SQLFORM.widgets.boolean.widget),\n                Field('hipertensao_AP',\n                    widget=SQLFORM.widgets.boolean.widget),\n                Field('flebites_AP', widget=SQLFORM.widgets.boolean.widget),\n                Field('trombose_venosa_AP',\n                    widget=SQLFORM.widgets.boolean.widget),\n                Field('diabetes_AP', widget=SQLFORM.widgets.boolean.widget),\n                Field('tireoide_AP', widget=SQLFORM.widgets.boolean.widget),\n                Field('outras_AP', widget=SQLFORM.widgets.boolean.widget),\n                Field('hepatite_AP', widget=SQLFORM.widgets.boolean.widget),\n                Field('colecistopatias_AP', widget=SQLFORM.widgets.boolean.widget),\n                Field('gonococcia_AP', widget=SQLFORM.widgets.boolean.widget),\n                Field('sifilis_AP', widget=SQLFORM.widgets.boolean.widget),\n                Field('hpv_AP', widget=SQLFORM.widgets.boolean.widget),\n                Field('hiv_AP', widget=SQLFORM.widgets.boolean.widget),\n                Field('outras_dst_AP'),\n                Field('doencas_renais_AP',\n                    widget=SQLFORM.widgets.boolean.widget),\n                Field('doencas_hematologicas_AP',\n                    widget=SQLFORM.widgets.boolean.widget),\n                Field('anemia_AP', widget=SQLFORM.widgets.boolean.widget),\n                Field('a_falciforme_AP',\n                    widget=SQLFORM.widgets.boolean.widget),\n                Field('outras_doencas_AP'),\n                Field('cancer_AP', widget=SQLFORM.widgets.boolean.widget),\n                Field('cirurgias_anteriores_AP',\n                    widget=SQLFORM.widgets.boolean.widget),\n                Field('alergias_AP', widget=SQLFORM.widgets.boolean.widget),\n                Field('transfusao_AP', widget=SQLFORM.widgets.boolean.widget),\n                Field('tranquilizantes_AP',\n                    widget=SQLFORM.widgets.boolean.widget),\n                Field('antidepressivos_AP',\n                    widget=SQLFORM.widgets.boolean.widget),\n                Field('antibioticos_AP',\n                    widget=SQLFORM.widgets.boolean.widget),\n                Field('outros_medicacao_atual_AP'),\n                Field('menarca_AM'),\n                Field('dum_AM'),\n                Field('dismenorreia_AM',\n                        widget=SQLFORM.widgets.boolean.widget),\n                Field('tpm_AM', widget=SQLFORM.widgets.boolean.widget),\n                Field('ciclo_menstrual_AM'),\n                Field('gesta_AO'),\n                Field('para_AO'),\n                Field('espontaneos_AO'),\n                Field('provocados_AO'),\n                Field('ultimo_aborto_AO'),\n                Field('intercorrencias_AO'),\n                Field('normais_AO'),\n                Field('cesareas_AO'),\n                Field('forcepes_AO'),\n                Field('primeiro_parto_AO'),\n                Field('ultimo_parto_AO'),\n                Field('aleitamento_AO'),\n                Field('idade_primeira_relacao_HS'),\n                Field('durante_ano_HS'),\n                Field('ultimos_meses_HS'),\n                Field('frequencia_relacoes_sexuais_HS', requires=IS_EMPTY_OR(\n                    IS_IN_SET(['nenhuma', '1 rela\xc3\xa7\xc3\xa3o semana',\n                        '2 rela\xc3\xa7\xc3\xb5es semana', '3 - 5 rela\xc3\xa7\xc3\xb5es semana',\n                        '5 rela\xc3\xa7\xc3\xb5es semana', 'eventual semana']))),\n                Field('orgamos_HS', widget=SQLFORM.widgets.boolean.widget),\n                Field('dispareunia_HS', widget=SQLFORM.widgets.boolean.widget),\n                Field('coito_anal_HS', widget=SQLFORM.widgets.boolean.widget),\n                Field('tabagismo_HS', widget=SQLFORM.widgets.boolean.widget),\n                Field('etilismo_HS', widget=SQLFORM.widgets.boolean.widget),\n                Field('drogas_HS', widget=SQLFORM.widgets.boolean.widget),\n                Field('drogas_qual_HS'),\n                Field('drogas_injetaveis_HS'),\n                Field('ritmo_espontaneo_CAP',\n                        widget=SQLFORM.widgets.boolean.widget),\n                Field('ritmo_estimulado_CAP',\n                        widget=SQLFORM.widgets.boolean.widget),\n                Field('ritmo_uso_em_qualquer_momento_CAP',\n                        widget=SQLFORM.widgets.boolean.widget),\n                Field('diafragma_espontaneo_CAP',\n                        widget=SQLFORM.widgets.boolean.widget),\n                Field('diafragma_estimulado_CAP',\n                        widget=SQLFORM.widgets.boolean.widget),\n                Field('diafragma_uso_em_qualquer_momento_CAP',\n                        widget=SQLFORM.widgets.boolean.widget),\n                Field('geleia_espontaneo_CAP',\n                        widget=SQLFORM.widgets.boolean.widget),\n                Field('geleia_estimulado_CAP',\n                        widget=SQLFORM.widgets.boolean.widget),\n                Field('geleia_uso_em_qualquer_momento_CAP',\n                        widget=SQLFORM.widgets.boolean.widget),\n                Field('preservativo_masculino_espontaneo_CAP',\n                        widget=SQLFORM.widgets.boolean.widget),\n                Field('preservativo_masculino_estimulado_CAP',\n                        widget=SQLFORM.widgets.boolean.widget),\n                Field('preservativo_masculino_uso_em_qualquer_momento_CAP',\n                        widget=SQLFORM.widgets.boolean.widget),\n                Field('camisinha_feminina_espontaneo_CAP',\n                        widget=SQLFORM.widgets.boolean.widget),\n                Field('camisinha_feminina_estimulado_CAP',\n                        widget=SQLFORM.widgets.boolean.widget),\n                Field('camisinha_feminina_uso_em_qualquer_momento_CAP',\n                        widget=SQLFORM.widgets.boolean.widget),\n                Field('diu_espontaneo_CAP',\n                        widget=SQLFORM.widgets.boolean.widget),\n                Field('diu_estimulado_CAP',\n                        widget=SQLFORM.widgets.boolean.widget),\n                Field('diu_uso_em_qualquer_momento_CAP',\n                        widget=SQLFORM.widgets.boolean.widget),\n                Field('pilula_espontaneo_CAP',\n                        widget=SQLFORM.widgets.boolean.widget),\n                Field('pilula_estimulado_CAP',\n                        widget=SQLFORM.widgets.boolean.widget),\n                Field('pilula_uso_em_qualquer_momento_CAP',\n                        widget=SQLFORM.widgets.boolean.widget),\n                Field('injetavel_espontaneo_CAP',\n                        widget=SQLFORM.widgets.boolean.widget),\n                Field('injetavel_estimulado_CAP',\n                        widget=SQLFORM.widgets.boolean.widget),\n                Field('injetavel_uso_em_qualquer_momento_CAP',\n                        widget=SQLFORM.widgets.boolean.widget),\n                Field('ligadura_tubaria_espontaneo_CAP',\n                        widget=SQLFORM.widgets.boolean.widget),\n                Field('ligadura_tubaria_estimulado_CAP',\n                        widget=SQLFORM.widgets.boolean.widget),\n                Field('ligadura_tubaria_uso_em_qualquer_momento_CAP',\n                        widget=SQLFORM.widgets.boolean.widget),\n                Field('vasectomia_espontaneo_CAP',\n                        widget=SQLFORM.widgets.boolean.widget),\n                Field('vasectomia_estimulado_CAP',\n                        widget=SQLFORM.widgets.boolean.widget),\n                Field('vasectomia_uso_em_qualquer_momento_CAP',\n                        widget=SQLFORM.widgets.boolean.widget),\n                Field('qual_CAP'),\n                Field('quanto_tempo_CAP'),\n                Field('metodo_escolha_pacientes'),\n                Field('indicacao_medica'),\n                Field('metodo_anticoncepcional'),\n                Field('observacoes', type='text'),\n                )\n\n\ndb.define_table('ficha_clinica_mastologia',\n                Field('id_paciente', 'reference pacientes',\n                    writable=False, readable=False),\n             Field('d_QD', widget=SQLFORM.widgets.boolean.widget),\n             Field('e_QD', widget=SQLFORM.widgets.boolean.widget),\n             Field('tempo_meses_QD', widget=SQLFORM.widgets.boolean.widget),\n             Field('nodulo_QD', widget=SQLFORM.widgets.boolean.widget),\n             Field('dor_QD', widget=SQLFORM.widgets.boolean.widget),\n             Field('fluxo_QD', widget=SQLFORM.widgets.boolean.widget),\n             Field('inflamacao_QD', widget=SQLFORM.widgets.boolean.widget),\n             Field('treuma_QD', widget=SQLFORM.widgets.boolean.widget),\n             Field('assintomatica_QD', widget=SQLFORM.widgets.boolean.widget),\n             Field('outros_QD', widget=SQLFORM.widgets.boolean.widget),\n             Field('observacoes_QD'),\n             Field('menarca_AT'),\n             Field('idade_primeiro_AT'),\n             Field('menopausa_AT'),\n             Field('aleitamente_numero_total_AT'),\n             Field('hormonios_AT', widget=SQLFORM.widgets.boolean.widget),\n             Field('dum_AT'),\n             Field('aco_AT', widget=SQLFORM.widgets.boolean.widget),\n             Field('aco_text_AT'),\n             Field('g_AT'),\n             Field('p_AT'),\n             Field('a_AT'),\n             Field('trh_AT', widget=SQLFORM.widgets.boolean.widget),\n             Field('trh_text_AT'),\n             Field('alcoolismo_APF', widget=SQLFORM.widgets.boolean.widget),\n             Field('alcoolismo_text_APF'),\n             Field('tabagismo_APF', widget=SQLFORM.widgets.boolean.widget),\n             Field('tabagismo_text_APF'),\n             Field('biopsia_previa_APF',\n                 widget=SQLFORM.widgets.boolean.widget),\n             Field('ap_APF'),\n             Field('cancer_mama_APF', widget=SQLFORM.widgets.boolean.widget),\n             Field('tratamento', requires=IS_EMPTY_OR(\n                 IS_IN_SET(['conservador', 'radical', 'RT', 'QT', 'HT']))),\n             Field('mae_CM', widget=SQLFORM.widgets.boolean.widget),\n             Field('materno_CM', widget=SQLFORM.widgets.boolean.widget),\n             Field('unilateral_CM', widget=SQLFORM.widgets.boolean.widget),\n             Field('avo_CM', widget=SQLFORM.widgets.boolean.widget),\n             Field('paterno_CM', widget=SQLFORM.widgets.boolean.widget),\n             Field('bilateral_CM', widget=SQLFORM.widgets.boolean.widget),\n             Field('tia_CM', widget=SQLFORM.widgets.boolean.widget),\n             Field('irma_CM', widget=SQLFORM.widgets.boolean.widget),\n             Field('prima_CM', widget=SQLFORM.widgets.boolean.widget),\n             Field('idade_CM'),\n             Field('observacoes_CM'),\n             Field('endometrio_OC', widget=SQLFORM.widgets.boolean.widget),\n             Field('colon_OC', widget=SQLFORM.widgets.boolean.widget),\n             Field('ovario_OC', widget=SQLFORM.widgets.boolean.widget),\n             Field('tireoide_OC', widget=SQLFORM.widgets.boolean.widget),\n             Field('prostata_OC', widget=SQLFORM.widgets.boolean.widget),\n             Field('outros_OC', widget=SQLFORM.widgets.boolean.widget),\n             Field('outros_text_OC'),\n             Field('exame_fisico_E', requires=IS_EMPTY_OR(IS_IN_SET(\n                 ['normal', 'alterado', 'D', 'E']))),\n             Field('inspecao_E', requires=IS_EMPTY_OR(IS_IN_SET(\n                 ['normal', 'volume', 'P', 'M', 'G']))),\n             Field('abaulamento_E', widget=SQLFORM.widgets.boolean.widget),\n             Field('retracao_E', widget=SQLFORM.widgets.boolean.widget),\n             Field('uiceracao_E', widget=SQLFORM.widgets.boolean.widget),\n             Field('eritema_E', widget=SQLFORM.widgets.boolean.widget),\n             Field('edema_E', widget=SQLFORM.widgets.boolean.widget),\n             Field('edema_braco_E', widget=SQLFORM.widgets.boolean.widget),\n             Field('palpacao_E', requires=IS_EMPTY_OR(IS_IN_SET(\n                 ['normal', 'espessamento', 'nodulo']))),\n             Field('consistencia_E', requires=IS_EMPTY_OR(IS_IN_SET(\n                 ['cistica', 'endurecimento', 'fibroelastico', 'lipomatosa']))\n                 ),\n             Field('mobilidade_E', requires=IS_EMPTY_OR(IS_IN_SET(\n                 ['m\xc3\xb3vel', 'fixo', 'F\xc3\xa1scia peitoral', 'Parede costal', 'pele']\n                 ))),\n             Field('superficie_E', requires=IS_EMPTY_OR(IS_IN_SET(\n                 ['regular', 'irregular']))),\n             Field('fluxo_Ex', requires=IS_EMPTY_OR(IS_IN_SET(\n                 ['S', 'N', 'D', 'E']))),\n             Field('cor_Ex', requires=IS_EMPTY_OR(IS_IN_SET(\n                 ['sangue', 'sero-sanguinolento', 'seroso', 'esverdeado',\n                     'lacteo', 'cristalino']))),\n             Field('multiductal_Ex', widget=SQLFORM.widgets.boolean.widget),\n             Field('uniductal_Ex', widget=SQLFORM.widgets.boolean.widget),\n             Field('linfonodos_axila_Ex',\n                     widget=SQLFORM.widgets.boolean.widget),\n             Field('supre_clavicular_Ex',\n                     widget=SQLFORM.widgets.boolean.widget),\n             Field('d_Ex', widget=SQLFORM.widgets.boolean.widget),\n             Field('unico_Ex', widget=SQLFORM.widgets.boolean.widget),\n             Field('moveis_Ex', widget=SQLFORM.widgets.boolean.widget),\n             Field('isolado_Ex', widget=SQLFORM.widgets.boolean.widget),\n             Field('e_Ex', widget=SQLFORM.widgets.boolean.widget),\n             Field('multiplo_Ex', widget=SQLFORM.widgets.boolean.widget),\n             Field('fixos_Ex', widget=SQLFORM.widgets.boolean.widget),\n             Field('conglomerado_Ex', widget=SQLFORM.widgets.boolean.widget),\n             Field('lesao_SC', requires=IS_EMPTY_OR(IS_IN_SET(\n                 [1, 2, 3, 'D', 'E']))),\n             Field('suspeita_clinica_SC', requires=IS_EMPTY_OR(IS_IN_SET(\n                 ['Normal', 'Benigno', 'Maligno', 'Suspeito', 'Inconclusivo',\n                     'NR']))),\n             Field('mamografia_SC', requires=IS_EMPTY_OR(IS_IN_SET(\n                 ['Normal', 'Benigno', 'Maligno', 'Suspeito', 'Inconclusivo',\n                     'NR']))),\n             Field('usg_SC', requires=IS_EMPTY_OR(IS_IN_SET(\n                 ['Normal', 'Benigno', 'Maligno', 'Suspeito', 'Inconclusivo',\n                     'NR']))),\n             Field('citologia_SC', requires=IS_EMPTY_OR(IS_IN_SET(\n                 ['Normal', 'Benigno', 'Maligno', 'Suspeito', 'Inconclusivo',\n                     'NR']))),\n             Field('paaf_SC', requires=IS_EMPTY_OR(IS_IN_SET(\n                 ['Normal', 'Benigno', 'Maligno', 'Suspeito', 'Inconclusivo',\n                     'NR']))),\n             Field('bag_SC', requires=IS_EMPTY_OR(IS_IN_SET(\n                 ['Normal', 'Benigno', 'Maligno', 'Suspeito', 'Inconclusivo',\n                     'NR']))),\n             Field('biopsia_SC', widget=SQLFORM.widgets.boolean.widget),\n             Field('ap_SC'),\n             Field('estadiamento_clinico'),\n             Field('tnm'),\n             Field('conduta'),\n             Field('rx_torax', requires=IS_EMPTY_OR(IS_IN_SET(\n                 ['normal', 'alterado']))),\n             Field('rx_torax_text'),\n             Field('mapeamento_osseo', requires=IS_EMPTY_OR(IS_IN_SET(\n                 ['normal', 'alterado']))),\n             Field('mapeamento_osseo_text'),\n             Field('usg_abdominal', requires=IS_EMPTY_OR(IS_IN_SET(\n                 ['normal', 'alterado']))),\n             Field('usg_abdominal_text'),\n             Field('usg_pelvica', requires=IS_EMPTY_OR(IS_IN_SET(\n                 ['normal', 'alterado']))),\n             Field('usg_pelvica_text'),\n            )\n\n\ndb.define_table('ficha_clinica_parto_e_puerperio',\n                Field('id_paciente', 'reference pacientes',\n                    writable=False, readable=False),\n             Field('data_P'),\n             Field('local_P'),\n             Field('nivel_atencao_P', requires=IS_EMPTY_OR(IS_IN_SET(\n                 ['1 \xc2\xba', '2\xc2\xba', '3\xc2\xba', 'Domiciliar', 'Outro']))),\n             Field('idade_gestacional_P'),\n             Field('inicio_P', requires=IS_EMPTY_OR(IS_IN_SET(\n                 ['Espont\xc3\xa2neo', 'Induzido']))),\n             Field('tipo_parto_P', requires=IS_EMPTY_OR(IS_IN_SET(\n                 ['Normal', 'F\xc3\xb3rcepe', 'Ces\xc3\xa1ria', 'Cef\xc3\xa1lico', 'P\xc3\xa9lvico',\n                     '\xc3\x9anico', 'Gemelar']))),\n             Field('episiotomia_P', widget=SQLFORM.widgets.boolean.widget),\n             Field('laceracao_P', widget=SQLFORM.widgets.boolean.widget),\n             Field('delivramento_espontaneo_P',\n                 widget=SQLFORM.widgets.boolean.widget),\n             Field('curagem_P', widget=SQLFORM.widgets.boolean.widget),\n             Field('mae_rh_P', widget=SQLFORM.widgets.boolean.widget),\n             Field('imunoglobulina_P', widget=SQLFORM.widgets.boolean.widget),\n             Field('responsavel_parto_P', requires=IS_EMPTY_OR(IS_IN_SET(\n                 ['M\xc3\xa9dico', 'Enfermeira', 'Auxiliar']))),\n             Field('responsavel_outro_P'),\n             Field('morte_fetal_P', widget=SQLFORM.widgets.boolean.widget),\n             Field('morte_feta_gestacao_P',\n                 widget=SQLFORM.widgets.boolean.widget),\n             Field('morte_feta_parto_P',\n                 widget=SQLFORM.widgets.boolean.widget),\n             Field('morte_feta_ignorado_P',\n                 widget=SQLFORM.widgets.boolean.widget),\n             Field('morte_feta_causa_P'),\n             Field('medicaocoes_parto_P', type='text'),\n             Field('intercorrencias_parto_P', type='text'),\n             Field('sexo_RN',\n                 requires=IS_EMPTY_OR(IS_IN_SET(['Masculino', 'Feminino']))),\n             Field('apgar_RN',\n                 requires=IS_EMPTY_OR(IS_IN_SET(['1\xc2\xba minuto', '5\xc2\xba minuto']))),\n             Field('reanimacao_P', widget=SQLFORM.widgets.boolean.widget),\n             Field('vdrl_P', widget=SQLFORM.widgets.boolean.widget),\n             Field('tipagem_sanguinea_P'),\n             Field('peso_P'),\n             Field('idade_exame_fisico_P'),\n             Field('peso_idade_gestacional_P', requires=IS_EMPTY_OR(IS_IN_SET(\n                 ['AIG', 'GIG', 'PIG']))),\n             Field('exame_fisico_P', requires=IS_EMPTY_OR(IS_IN_SET(\n                 ['Normal', 'Anormal']))),\n             Field('exame_neurologico_P', requires=IS_EMPTY_OR(IS_IN_SET(\n                 ['Normal', 'Anormal']))),\n             Field('estatura_P'),\n             Field('perimetro_cefalico_P'),\n             Field('achados_anormais_P', type='text'),\n             Field('alojamento_conjunto_P',\n                     widget=SQLFORM.widgets.boolean.widget),\n             Field('patologias_intercorrentes_memb_hialina_P',\n                     widget=SQLFORM.widgets.boolean.widget),\n             Field('patologias_intercorrentes_hemorragia_P',\n                     widget=SQLFORM.widgets.boolean.widget),\n             Field('patologias_intercorrentes_anomalia_congenita_P',\n                     widget=SQLFORM.widgets.boolean.widget),\n             Field('patologias_intercorrentes_aspiracao_meconial_P',\n                     widget=SQLFORM.widgets.boolean.widget),\n             Field('patologias_intercorrentes_hiperbilirrubinemia_P',\n                     widget=SQLFORM.widgets.boolean.widget),\n             Field('patologias_intercorrentes_apneia_P',\n                     widget=SQLFORM.widgets.boolean.widget),\n             Field('patologias_intercorrentes_outras_sindromes_P',\n                     widget=SQLFORM.widgets.boolean.widget),\n             Field('patologias_intercorrentes_convuncao_P',\n                     widget=SQLFORM.widgets.boolean.widget),\n             Field('patologias_intercorrentes_outras_P', type='text'),\n             Field('alta_rn_P', requires=IS_EMPTY_OR(IS_IN_SET(\n                 ['Sadio', 'Transferido']))),\n             Field('idadei_alta_P'),\n             Field('transferencias_P', requires=IS_EMPTY_OR(IS_IN_SET(\n                 ['+ 24', '- 24']))),\n             Field('transferencias_dias_P'),\n             Field('idade_obito_dias_P'),\n             Field('idade_obito_horas_P'),\n             Field('causa_obito_P', type='text'),\n             Field('sexo_P', requires=IS_EMPTY_OR(IS_IN_SET(\n                 ['Masculino', 'Feminino']))),\n             Field('alimentacao_P', requires=IS_EMPTY_OR(IS_IN_SET(\n                 ['Mama', 'Mista', 'Artificial']))),\n             Field('data_CP'),\n             Field('queixas_CP', type='text'),\n             Field('pa_CP'),\n             Field('estado_geral_CP'),\n             Field('mucosa_CP'),\n             Field('mamas_CP'),\n             Field('abdome_CP'),\n             Field('exame_ginecologico_CP'),\n             Field('aleitamento_materno_CP',\n                     widget=SQLFORM.widgets.boolean.widget),\n             Field('barreira_CP', widget=SQLFORM.widgets.boolean.widget),\n             Field('diu_CP', widget=SQLFORM.widgets.boolean.widget),\n             Field('hormonal_oral_CP', widget=SQLFORM.widgets.boolean.widget),\n             Field('hormonal_injetavel_CP',\n                     widget=SQLFORM.widgets.boolean.widget),\n             Field('comportamental_CP',\n                     widget=SQLFORM.widgets.boolean.widget),\n             Field('cirurgico_CP', widget=SQLFORM.widgets.boolean.widget),\n             Field('nenhum_CP', widget=SQLFORM.widgets.boolean.widget),\n             Field('orientacao_CP', type='text'),\n            )\n\n\ndb.define_table('ficha_clinica_pre_natal',\n                Field('id_paciente', 'reference pacientes',\n                    writable=False, readable=False),\n             Field('AF_hipertencao_arterial_A',\n                 widget=SQLFORM.widgets.boolean.widget),\n             Field('AF_diabetes_A', widget=SQLFORM.widgets.boolean.widget),\n             Field('AF_gemelidade_A', widget=SQLFORM.widgets.boolean.widget),\n             Field('AF_malformacao_A', widget=SQLFORM.widgets.boolean.widget),\n             Field('AF_outros_A', type='text'),\n             Field('AP_hipertencao_arterial_A',\n                 widget=SQLFORM.widgets.boolean.widget),\n             Field('AP_diabetes_A', widget=SQLFORM.widgets.boolean.widget),\n             Field('AP_cir_pelvica_A', widget=SQLFORM.widgets.boolean.widget),\n             Field('AP_cardiopatia_A', widget=SQLFORM.widgets.boolean.widget),\n             Field('AP_infc_urinaria_A',\n                 widget=SQLFORM.widgets.boolean.widget),\n             Field('AP_malformacao_A', widget=SQLFORM.widgets.boolean.widget),\n             Field('AP_outros_A', type='text'),\n             Field('gestacao_AO'),\n             Field('parto_AO'),\n             Field('abortos_AO'),\n             Field('ectopicas_AO'),\n             Field('gemelares_AO'),\n             Field('abortamentos_AO'),\n             Field('espontaneos_AO'),\n             Field('provocados_AO'),\n             Field('com_curetagem_AO'),\n             Field('partos_vaginais_AO'),\n             Field('partos_cesarios_AO'),\n             Field('nascidos_vivos_AO'),\n             Field('nascidos_mortos_AO'),\n             Field('filhos_vivos_atuais_AO'),\n             Field('obitos_primeira_semana_AO'),\n             Field('obitos_apos_primeira_semana_AO'),\n             Field('causa_obitos_AO'),\n             Field('peso_rn_AO'),\n             Field('data_ultima_gestacao_AO'),\n             Field('amamentacao_AO', widget=SQLFORM.widgets.boolean.widget),\n             Field('amamentacao_duracao_AO'),\n             Field('amamentacao_causa_insucesso_AO'),\n             Field('intercorrencias_gestacoes_anteriores_AO'),\n             Field('dum_GA'),\n             Field('dpp_GA'),\n             Field('duvida_GA', widget=SQLFORM.widgets.boolean.widget),\n             Field('duvida_qual_GA'),\n             Field('grupo_sanguineo_GA', requires=IS_EMPTY_OR(IS_IN_SET(\n                 ['Rh+', 'Rh-']))),\n             Field('sensibilizada_GA', widget=SQLFORM.widgets.boolean.widget),\n             Field('vacinacao_anti_tetanica',\n                 widget=SQLFORM.widgets.boolean.widget),\n             Field('doses_previas', requires=IS_EMPTY_OR(IS_IN_SET(\n                 [1, 2, 3]))),\n             Field('ultima_dose_maior_cinco_anos_GA',\n                     requires=IS_EMPTY_OR(IS_IN_SET(\n                         ['Sim', 'N\xc3\xa3o', 'Ignorado']))),\n             Field('data_prevista_vacinacoes_um_GA',\n                     widget=SQLFORM.widgets.boolean.widget),\n             Field('data_prevista_vacinacoes_um_texto_GA'),\n             Field('data_prevista_vacinacoes_dois_GA',\n                     widget=SQLFORM.widgets.boolean.widget),\n             Field('data_prevista_vacinacoes_dois_texto_GA'),\n             Field('data_prevista_vacinacoes_tres_GA',\n                     widget=SQLFORM.widgets.boolean.widget),\n             Field('data_prevista_vacinacoes_tres_texto_GA'),\n             Field('fumo_GA', widget=SQLFORM.widgets.boolean.widget),\n             Field('famo_quantos_GA'),\n             Field('alcool_GA', widget=SQLFORM.widgets.boolean.widget),\n             Field('alcool_frequencia_GA'),\n             Field('intercorrencias_primeira_consulta_GA'),\n             Field('peso_primeira_consulta_ED'),\n             Field('peso_previo_ED'),\n             Field('estatura_ED'),\n             Field('ex_clinico_normal_ED',\n                     widget=SQLFORM.widgets.boolean.widget),\n             Field('ex_mamas_normal_ED',\n                     widget=SQLFORM.widgets.boolean.widget),\n             Field('ex_ginecologico_normal_ED',\n                     widget=SQLFORM.widgets.boolean.widget),\n             Field('achados_alterados_exames_ED'),\n             Field('data_primeira_EG'),\n             Field('ig_primeira_EG'),\n             Field('peso_primeira_EG'),\n             Field('pa_max_mim_primeira_EG'),\n             Field('altura_uterina_primeira_EG'),\n             Field('apresentacao_fetal_primeira_EG'),\n             Field('movimentos_fetais_primeira_EG'),\n             Field('bcf_primeira_EG'),\n             Field('edema_mmii_primeira_EG'),\n             Field('data_segunda_EG'),\n             Field('ig_segunda_EG'),\n             Field('peso_segunda_EG'),\n             Field('pa_max_mim_segunda_EG'),\n             Field('altura_uterina_segunda_EG'),\n             Field('apresentacao_fetal_segunda_EG'),\n             Field('movimentos_fetais_segunda_EG'),\n             Field('bcf_segunda_EG'),\n             Field('edema_mmii_segunda_EG'),\n             Field('data_terceira_EG'),\n             Field('ig_terceira_EG'),\n             Field('peso_terceira_EG'),\n             Field('pa_max_mim_terceira_EG'),\n             Field('altura_uterina_terceira_EG'),\n             Field('apresentacao_fetal_terceira_EG'),\n             Field('movimentos_fetais_terceira_EG'),\n             Field('bcf_terceira_EG'),\n             Field('edema_mmii_terceira_EG'),\n             Field('data_quarta_EG'),\n             Field('ig_quarta_EG'),\n             Field('peso_quarta_EG'),\n             Field('pa_max_mim_quarta_EG'),\n             Field('altura_uterina_quarta_EG'),\n             Field('apresentacao_fetal_quarta_EG'),\n             Field('movimentos_fetais_quarta_EG'),\n             Field('bcf_quarta_EG'),\n             Field('edema_mmii_quarta_EG'),\n             Field('data_quinta_EG'),\n             Field('ig_quinta_EG'),\n             Field('peso_quinta_EG'),\n             Field('pa_max_mim_quinta_EG'),\n             Field('altura_uterina_quinta_EG'),\n             Field('apresentacao_fetal_quinta_EG'),\n             Field('movimentos_fetais_quinta_EG'),\n             Field('bcf_quinta_EG'),\n             Field('edema_mmii_quinta_EG'),\n             Field('data_sexta_EG'),\n             Field('ig_sexta_EG'),\n             Field('peso_sexta_EG'),\n             Field('pa_max_mim_sexta_EG'),\n             Field('altura_uterina_sexta_EG'),\n             Field('apresentacao_fetal_sexta_EG'),\n             Field('movimentos_fetais_sexta_EG'),\n             Field('bcf_sexta_EG'),\n             Field('edema_mmii_sexta_EG'),\n             Field('data_setima_EG'),\n             Field('ig_setima_EG'),\n             Field('peso_setima_EG'),\n             Field('pa_max_mim_setima_EG'),\n             Field('altura_uterina_setima_EG'),\n             Field('apresentacao_fetal_setima_EG'),\n             Field('movimentos_fetais_setima_EG'),\n             Field('bcf_setima_EG'),\n             Field('edema_mmii_setima_EG'),\n             Field('data_oitava_EG'),\n             Field('ig_oitava_EG'),\n             Field('peso_oitava_EG'),\n             Field('pa_max_mim_oitava_EG'),\n             Field('altura_uterina_oitava_EG'),\n             Field('apresentacao_fetal_oitava_EG'),\n             Field('movimentos_fetais_oitava_EG'),\n             Field('bcf_oitava_EG'),\n             Field('edema_mmii_oitava_EG'),\n             Field('data_nona_EG'),\n             Field('ig_nona_EG'),\n             Field('peso_nona_EG'),\n             Field('pa_max_mim_nona_EG'),\n             Field('altura_uterina_nona_EG'),\n             Field('apresentacao_fetal_nona_EG'),\n             Field('movimentos_fetais_nona_EG'),\n             Field('bcf_nona_EG'),\n             Field('edema_mmii_nona_EG'),\n             Field('data_decima_EG'),\n             Field('ig_decima_EG'),\n             Field('peso_decima_EG'),\n             Field('pa_max_mim_decima_EG'),\n             Field('altura_uterina_decima_EG'),\n             Field('apresentacao_fetal_decima_EG'),\n             Field('movimentos_fetais_decima_EG'),\n             Field('bcf_decima_EG'),\n             Field('edema_mmii_decima_EG'),\n             Field('tipo_sanguineo_EL'),\n             Field('hbht_EL'),\n             Field('glicenia_jejum_EL'),\n             Field('totg_EL'),\n             Field('vdrl_EL'),\n             Field('hbsag_EL'),\n             Field('hiv_EL'),\n             Field('toxoplasmose_EL'),\n             Field('rubeola_EL'),\n             Field('urinal_EL'),\n             Field('urocultura_EL'),\n             Field('papanicolaou_EL'),\n             Field('outros_EL'),\n             Field('data_US'),\n             Field('ig_dum_US'),\n             Field('ig_usg_US'),\n             Field('peso_fetal_US'),\n             Field('placenta_US'),\n             Field('liquido_US'),\n             Field('outros_US'),\n             Field('observacoes_US', type='text'),\n             Field('data_US'),\n             Field('intercorrencias_conduta_US'),\n            )\n\n\ndb.define_table('ficha_clinica_de_uroginecologia',\n                Field('id_paciente', 'reference pacientes',\n                    writable=False, readable=False),\n             Field('queixa_duracao_QD', type='text'),\n             Field('perda_esforcos_QD', requires=IS_EMPTY_OR(IS_IN_SET(\n                 ['N\xc3\xa3o', 'M\xc3\xadnimos esfor\xc3\xa7os', 'M\xc3\xa9dios esfor\xc3\xa7os',\n                     'Grandes esfor\xc3\xa7os']))),\n             Field('perda_urina_constante_QD',\n                 widget=SQLFORM.widgets.boolean.widget),\n             Field('incontinencia_urgencia_QD',\n                 widget=SQLFORM.widgets.boolean.widget),\n             Field('esvaziamento_incompleto_QD',\n                 widget=SQLFORM.widgets.boolean.widget),\n             Field('n_miccao_noite_QD',\n                 widget=SQLFORM.widgets.boolean.widget),\n             Field('n_miccao_dia_QD', widget=SQLFORM.widgets.boolean.widget),\n             Field('dusria_QD', widget=SQLFORM.widgets.boolean.widget),\n             Field('urgencia_miccional_QD',\n                 widget=SQLFORM.widgets.boolean.widget),\n             Field('enurese_noturna_QD',\n                 widget=SQLFORM.widgets.boolean.widget),\n             Field('hematuria_QD', widget=SQLFORM.widgets.boolean.widget),\n             Field('polaciuria_QD', widget=SQLFORM.widgets.boolean.widget),\n             Field('antecedentes_cirurgicos_urinarios_QD', type='text'),\n             Field('vulva_EFE', requires=IS_EMPTY_OR(IS_IN_SET(\n                 ['NL', 'Atrofia', 'Dermatite']))),\n             Field('procidencia_pva_EFE', requires=IS_EMPTY_OR(IS_IN_SET(\n                 ['Ausente',\n                     'N\xc3\xa3o atinge o intr\xc3\xb3ito vaginal ao esfor\xc3\xa7o',\n                     'Atinge o intr\xc3\xb3ito vaginal ao esfor\xc3\xa7o',\n                     'Ultrapassa o intr\xc3\xb3ito vaginal ao esfor\xc3\xa7o',\n                     'Ultrapassa o intr\xc3\xb3ito vaginal no repouso']))),\n             Field('procidencia_pvp_EFE', requires=IS_EMPTY_OR(IS_IN_SET(\n                 ['Discreta', 'Moderada', 'Acentuada']))),\n             Field('perda_urina_EFE', requires=IS_EMPTY_OR(IS_IN_SET(\n                 ['N\xc3\xa3o',\n                     'Posi\xc3\xa7\xc3\xa3o ginecol\xc3\xb3gica',\n                     'Posi\xc3\xa7\xc3\xa3o ortost\xc3\xa1tica',\n                     'Pequena quantidade',\n                     'Grande quantidade']))),\n             Field('rotura_perineal_EFE', requires=IS_EMPTY_OR(IS_IN_SET(\n                 ['Ausente', '1\xc2\xba grau', '2\xc2\xba grau', '3\xc2\xba grau']))),\n             Field('prolapso_uterino_EFE', requires=IS_EMPTY_OR(IS_IN_SET(\n                 ['Ausente', '1\xc2\xba grau', '2\xc2\xba grau', '3\xc2\xba grau']))),\n             Field('sensibilidade_perineal_EFE'),\n             Field('reflexo_anal_EFE'),\n             Field('reflexo_bulbocavernoso_EFE'),\n             Field('teste_cotonete_EFE'),\n             Field('urinal_um_ES'),\n             Field('urocultura_ES'),\n             Field('repouso_ES'),\n             Field('esforco_ES'),\n             Field('mobilidade_ES'),\n             Field('fluxo_medio_ES'),\n             Field('fluxo_maximo_ES'),\n             Field('vol_urinario_ES'),\n             Field('residuo_ES'),\n             Field('cv_primeiro_desejo_ES'),\n             Field('cv_maxima_ES'),\n             Field('perda_urina_ES'),\n             Field('contracao_nao_inibida_ES'),\n             Field('pressao_perda_ES'),\n             Field('pmfu_ES'),\n             Field('cfu_ES'),\n             Field('cisroscopia_ES', type='text'),\n             Field('urografia_excretora_ES', type='text'),\n             Field('outros_ES', type='text'),\n             Field('evolucao', type='text'),\n             Field('conduta', type='text'),\n             Field('data_ES'),\n             Field('observacoes', type='text'),\n            )\n\n\ndb.define_table('ficha_de_anticoncepcao',\n                Field('id_paciente', 'reference pacientes',\n                    writable=False, readable=False),\n             Field('insp_estatica_MAMAS', type='text'),\n             Field('insp_dinamica_MAMAS', type='text'),\n             Field('palpacao_MAMAS', type='text'),\n             Field('expressao_MAMAS', type='text'),\n             Field('axilas_MAMAS', type='text'),\n             Field('vagina_TOQUE', type='text'),\n             Field('colo_TOQUE', type='text'),\n             Field('utero_TOQUE', type='text'),\n             Field('an_d_TOQUE', type='text'),\n             Field('an_e_TOQUE', type='text'),\n             Field('reto_TOQUE', type='text'),\n             Field('parametrios_TOQUE', type='text'),\n             Field('pilificacao_OGE', type='text'),\n             Field('labios_OGE', type='text'),\n             Field('clitoris_OGE', type='text'),\n             Field('ureta_OGE', type='text'),\n             Field('gi_bartholin_OGE', type='text'),\n             Field('himem_OGE', type='text'),\n             Field('pva_OGE', type='text'),\n             Field('pvp_OGE', type='text'),\n             Field('perineo_OGE', type='text'),\n             Field('perda_urina_OGE', type='text'),\n             Field('vagina_ESPECULAR', type='text'),\n             Field('colo_ESPECULAR', type='text'),\n             Field('cont_vaginal_ESPECULAR', type='text'),\n            )\n\ndb.define_table('retorno',\n                Field('id_paciente', 'reference',\n                      readable=False, writable=False),\n                Field('texto', 'text'),\n                Field('data', type='date'),\n                )\n"
p7
sS'snapshot'
p8
(dp9
S'exception'
p10
(dp11
S'__hash__'
p12
S"<method-wrapper '__hash__' of exceptions.KeyError object>"
p13
sS'__setattr__'
p14
S"<method-wrapper '__setattr__' of exceptions.KeyError object>"
p15
sS'__reduce_ex__'
p16
S'<built-in method __reduce_ex__ of exceptions.KeyError object>'
p17
sS'__getslice__'
p18
S"<method-wrapper '__getslice__' of exceptions.KeyError object>"
p19
sS'__getitem__'
p20
S"<method-wrapper '__getitem__' of exceptions.KeyError object>"
p21
sS'__setstate__'
p22
S'<built-in method __setstate__ of exceptions.KeyError object>'
p23
sS'args'
p24
S"('Cannot resolve reference  in retorno definition',)"
p25
sS'__reduce__'
p26
S'<built-in method __reduce__ of exceptions.KeyError object>'
p27
sS'__str__'
p28
S"<method-wrapper '__str__' of exceptions.KeyError object>"
p29
sS'__format__'
p30
S'<built-in method __format__ of exceptions.KeyError object>'
p31
sS'__getattribute__'
p32
S"<method-wrapper '__getattribute__' of exceptions.KeyError object>"
p33
sS'__class__'
p34
S"<type 'exceptions.KeyError'>"
p35
sS'__unicode__'
p36
S'<built-in method __unicode__ of exceptions.KeyError object>'
p37
sS'__delattr__'
p38
S"<method-wrapper '__delattr__' of exceptions.KeyError object>"
p39
sS'__subclasshook__'
p40
S'<built-in method __subclasshook__ of type object>'
p41
sS'__repr__'
p42
S"<method-wrapper '__repr__' of exceptions.KeyError object>"
p43
sS'__dict__'
p44
S'{}'
p45
sS'__sizeof__'
p46
S'<built-in method __sizeof__ of exceptions.KeyError object>'
p47
sS'__doc__'
p48
S"'Mapping key not found.'"
p49
sS'__init__'
p50
S"<method-wrapper '__init__' of exceptions.KeyError object>"
p51
sS'__new__'
p52
S'<built-in method __new__ of type object>'
p53
ssS'evalue'
p54
S"'Cannot resolve reference  in retorno definition'"
p55
sS'request'
p56
cgluon.html
XML_unpickle
p57
(S's<[\x00\x00<div><table><tr><td style="font-weight:bold;vertical-align:top;">ajax</td><td style="vertical-align:top;">:</td><td><div>False</div></td></tr><tr><td style="font-weight:bold;vertical-align:top;">application</td><td style="vertical-align:top;">:</td><td><div>web2clinic</div></td></tr><tr><td style="font-weight:bold;vertical-align:top;">args</td><td style="vertical-align:top;">:</td><td><div><table></table></div></td></tr><tr><td style="font-weight:bold;vertical-align:top;">cid</td><td style="vertical-align:top;">:</td><td><div>None</div></td></tr><tr><td style="font-weight:bold;vertical-align:top;">client</td><td style="vertical-align:top;">:</td><td><div>127.0.0.1</div></td></tr><tr><td style="font-weight:bold;vertical-align:top;">controller</td><td style="vertical-align:top;">:</td><td><div>pacientes</div></td></tr><tr><td style="font-weight:bold;vertical-align:top;">cookies</td><td style="vertical-align:top;">:</td><td><div><table><tr><td style="font-weight:bold;vertical-align:top;">csrftoken</td><td style="vertical-align:top;">:</td><td><div>TbsXzJA6X3OjayGBx0DFeCzF9FmD6wU7<table><tr><td style="font-weight:bold;vertical-align:top;">comment</td><td style="vertical-align:top;">:</td><td><div></div></td></tr><tr><td style="font-weight:bold;vertical-align:top;">domain</td><td style="vertical-align:top;">:</td><td><div></div></td></tr><tr><td style="font-weight:bold;vertical-align:top;">expires</td><td style="vertical-align:top;">:</td><td><div></div></td></tr><tr><td style="font-weight:bold;vertical-align:top;">httponly</td><td style="vertical-align:top;">:</td><td><div></div></td></tr><tr><td style="font-weight:bold;vertical-align:top;">max-age</td><td style="vertical-align:top;">:</td><td><div></div></td></tr><tr><td style="font-weight:bold;vertical-align:top;">path</td><td style="vertical-align:top;">:</td><td><div></div></td></tr><tr><td style="font-weight:bold;vertical-align:top;">secure</td><td style="vertical-align:top;">:</td><td><div></div></td></tr><tr><td style="font-weight:bold;vertical-align:top;">version</td><td style="vertical-align:top;">:</td><td><div></div></td></tr></table></div></td></tr><tr><td style="font-weight:bold;vertical-align:top;">session_id_admin</td><td style="vertical-align:top;">:</td><td><div>127.0.0.1-53e12657-4a9f-4982-845f-576399620228<table><tr><td style="font-weight:bold;vertical-align:top;">comment</td><td style="vertical-align:top;">:</td><td><div></div></td></tr><tr><td style="font-weight:bold;vertical-align:top;">domain</td><td style="vertical-align:top;">:</td><td><div></div></td></tr><tr><td style="font-weight:bold;vertical-align:top;">expires</td><td style="vertical-align:top;">:</td><td><div></div></td></tr><tr><td style="font-weight:bold;vertical-align:top;">httponly</td><td style="vertical-align:top;">:</td><td><div></div></td></tr><tr><td style="font-weight:bold;vertical-align:top;">max-age</td><td style="vertical-align:top;">:</td><td><div></div></td></tr><tr><td style="font-weight:bold;vertical-align:top;">path</td><td style="vertical-align:top;">:</td><td><div></div></td></tr><tr><td style="font-weight:bold;vertical-align:top;">secure</td><td style="vertical-align:top;">:</td><td><div></div></td></tr><tr><td style="font-weight:bold;vertical-align:top;">version</td><td style="vertical-align:top;">:</td><td><div></div></td></tr></table></div></td></tr><tr><td style="font-weight:bold;vertical-align:top;">session_id_web2clinic</td><td style="vertical-align:top;">:</td><td><div>127.0.0.1-82dbaa41-601d-4d76-885f-820601bc79bd<table><tr><td style="font-weight:bold;vertical-align:top;">comment</td><td style="vertical-align:top;">:</td><td><div></div></td></tr><tr><td style="font-weight:bold;vertical-align:top;">domain</td><td style="vertical-align:top;">:</td><td><div></div></td></tr><tr><td style="font-weight:bold;vertical-align:top;">expires</td><td style="vertical-align:top;">:</td><td><div></div></td></tr><tr><td style="font-weight:bold;vertical-align:top;">httponly</td><td style="vertical-align:top;">:</td><td><div></div></td></tr><tr><td style="font-weight:bold;vertical-align:top;">max-age</td><td style="vertical-align:top;">:</td><td><div></div></td></tr><tr><td style="font-weight:bold;vertical-align:top;">path</td><td style="vertical-align:top;">:</td><td><div></div></td></tr><tr><td style="font-weight:bold;vertical-align:top;">secure</td><td style="vertical-align:top;">:</td><td><div></div></td></tr><tr><td style="font-weight:bold;vertical-align:top;">version</td><td style="vertical-align:top;">:</td><td><div></div></td></tr></table></div></td></tr></table></div></td></tr><tr><td style="font-weight:bold;vertical-align:top;">env</td><td style="vertical-align:top;">:</td><td><div><table><tr><td style="font-weight:bold;vertical-align:top;">HTTP_ACCEPT</td><td style="vertical-align:top;">:</td><td><div>text/html,application/xhtml+xml,application/xml;q=0.9,*/*;q=0.8</div></td></tr><tr><td style="font-weight:bold;vertical-align:top;">HTTP_ACCEPT_ENCODING</td><td style="vertical-align:top;">:</td><td><div>gzip, deflate</div></td></tr><tr><td style="font-weight:bold;vertical-align:top;">HTTP_ACCEPT_LANGUAGE</td><td style="vertical-align:top;">:</td><td><div>pt-BR,pt;q=0.8,en-US;q=0.5,en;q=0.3</div></td></tr><tr><td style="font-weight:bold;vertical-align:top;">HTTP_CONNECTION</td><td style="vertical-align:top;">:</td><td><div>keep-alive</div></td></tr><tr><td style="font-weight:bold;vertical-align:top;">HTTP_COOKIE</td><td style="vertical-align:top;">:</td><td><div>csrftoken=TbsXzJA6X3OjayGBx0DFeCzF9FmD6wU7; session_id_web2clinic=127.0.0.1-82dbaa41-601d-4d76-885f-820601bc79bd; session_id_admin=127.0.0.1-53e12657-4a9f-4982-845f-576399620228</div></td></tr><tr><td style="font-weight:bold;vertical-align:top;">HTTP_DNT</td><td style="vertical-align:top;">:</td><td><div>1</div></td></tr><tr><td style="font-weight:bold;vertical-align:top;">HTTP_HOST</td><td style="vertical-align:top;">:</td><td><div>127.0.0.1:8000</div></td></tr><tr><td style="font-weight:bold;vertical-align:top;">HTTP_REFERER</td><td style="vertical-align:top;">:</td><td><div>http://127.0.0.1:8000/web2clinic/pacientes/index</div></td></tr><tr><td style="font-weight:bold;vertical-align:top;">HTTP_USER_AGENT</td><td style="vertical-align:top;">:</td><td><div>Mozilla/5.0 (X11; Linux x86_64; rv:38.0) Gecko/20100101 Firefox/38.0 Iceweasel/38.4.0</div></td></tr><tr><td style="font-weight:bold;vertical-align:top;">PATH_INFO</td><td style="vertical-align:top;">:</td><td><div>/web2clinic/pacientes/nova_consulta</div></td></tr><tr><td style="font-weight:bold;vertical-align:top;">QUERY_STRING</td><td style="vertical-align:top;">:</td><td><div></div></td></tr><tr><td style="font-weight:bold;vertical-align:top;">REMOTE_ADDR</td><td style="vertical-align:top;">:</td><td><div>127.0.0.1</div></td></tr><tr><td style="font-weight:bold;vertical-align:top;">REMOTE_PORT</td><td style="vertical-align:top;">:</td><td><div>53366</div></td></tr><tr><td style="font-weight:bold;vertical-align:top;">REQUEST_METHOD</td><td style="vertical-align:top;">:</td><td><div>GET</div></td></tr><tr><td style="font-weight:bold;vertical-align:top;">SCRIPT_NAME</td><td style="vertical-align:top;">:</td><td><div></div></td></tr><tr><td style="font-weight:bold;vertical-align:top;">SERVER_NAME</td><td style="vertical-align:top;">:</td><td><div>mmxx</div></td></tr><tr><td style="font-weight:bold;vertical-align:top;">SERVER_PORT</td><td style="vertical-align:top;">:</td><td><div>8000</div></td></tr><tr><td style="font-weight:bold;vertical-align:top;">SERVER_PROTOCOL</td><td style="vertical-align:top;">:</td><td><div>HTTP/1.1</div></td></tr><tr><td style="font-weight:bold;vertical-align:top;">SERVER_SOFTWARE</td><td style="vertical-align:top;">:</td><td><div>Rocket 1.2.6</div></td></tr><tr><td style="font-weight:bold;vertical-align:top;">app_folders</td><td style="vertical-align:top;">:</td><td><div>set([&#x27;/home/marcelotheodoro/web2py/applications/web2clinic/&#x27;, &#x27;/home/marcelotheodoro/web2py/applications/admin/&#x27;])</div></td></tr><tr><td style="font-weight:bold;vertical-align:top;">applications_parent</td><td style="vertical-align:top;">:</td><td><div>/home/marcelotheodoro/web2py</div></td></tr><tr><td style="font-weight:bold;vertical-align:top;">cmd_args</td><td style="vertical-align:top;">:</td><td><div><table></table></div></td></tr><tr><td style="font-weight:bold;vertical-align:top;">cmd_options</td><td style="vertical-align:top;">:</td><td><div>&lt;Values at 0x7f0a15c70ea8: {&#x27;verbose&#x27;: False, &#x27;ip&#x27;: &#x27;127.0.0.1&#x27;, &#x27;debuglevel&#x27;: 30, &#x27;with_scheduler&#x27;: False, &#x27;ips&#x27;: [&#x27;127.0.1.1&#x27;], &#x27;shutdown_timeout&#x27;: 5, &#x27;taskbar&#x27;: False, &#x27;with_coverage&#x27;: False, &#x27;scheduler_groups&#x27;: None, &#x27;port&#x27;: 8000, &#x27;maxthreads&#x27;: None, &#x27;softcron&#x27;: False, &#x27;server_name&#x27;: &#x27;mmxx&#x27;, &#x27;bpython&#x27;: False, &#x27;nogui&#x27;: False, &#x27;pid_filename&#x27;: &#x27;httpserver.pid&#x27;, &#x27;print_errors&#x27;: False, &#x27;extcron&#x27;: False, &#x27;runcron&#x27;: False, &#x27;run_system_tests&#x27;: False, &#x27;test&#x27;: None, &#x27;folder&#x27;: &#x27;/home/marcelotheodoro/web2py&#x27;, &#x27;config&#x27;: &#x27;&#x27;, &#x27;minthreads&#x27;: None, &#x27;shell&#x27;: None, &#x27;run&#x27;: &#x27;&#x27;, &#x27;log_filename&#x27;: &#x27;httpserver.log&#x27;, &#x27;profiler_dir&#x27;: None, &#x27;args&#x27;: [&#x27;&#x27;], &#x27;socket_timeout&#x27;: 5, &#x27;ssl_ca_certificate&#x27;: None, &#x27;scheduler&#x27;: None, &#x27;interfaces&#x27;: None, &#x27;ssl_private_key&#x27;: &#x27;&#x27;, &#x27;gae&#x27;: None, &#x27;password&#x27;: &#x27;123&#x27;, &#x27;request_queue_size&#x27;: 5, &#x27;ssl_certificate&#x27;: &#x27;&#x27;, &#x27;cronjob&#x27;: False, &#x27;numthreads&#x27;: None, &#x27;quiet&#x27;: False, &#x27;import_models&#x27;: False, &#x27;timeout&#x27;: 10, &#x27;plain&#x27;: False, &#x27;nobanner&#x27;: False}&gt;</div></td></tr><tr><td style="font-weight:bold;vertical-align:top;">db_sessions</td><td style="vertical-align:top;">:</td><td><div>set([])</div></td></tr><tr><td style="font-weight:bold;vertical-align:top;">debugging</td><td style="vertical-align:top;">:</td><td><div>False</div></td></tr><tr><td style="font-weight:bold;vertical-align:top;">gluon_parent</td><td style="vertical-align:top;">:</td><td><div>/home/marcelotheodoro/web2py</div></td></tr><tr><td style="font-weight:bold;vertical-align:top;">http_accept</td><td style="vertical-align:top;">:</td><td><div>text/html,application/xhtml+xml,application/xml;q=0.9,*/*;q=0.8</div></td></tr><tr><td style="font-weight:bold;vertical-align:top;">http_accept_encoding</td><td style="vertical-align:top;">:</td><td><div>gzip, deflate</div></td></tr><tr><td style="font-weight:bold;vertical-align:top;">http_accept_language</td><td style="vertical-align:top;">:</td><td><div>pt-BR,pt;q=0.8,en-US;q=0.5,en;q=0.3</div></td></tr><tr><td style="font-weight:bold;vertical-align:top;">http_connection</td><td style="vertical-align:top;">:</td><td><div>keep-alive</div></td></tr><tr><td style="font-weight:bold;vertical-align:top;">http_cookie</td><td style="vertical-align:top;">:</td><td><div>csrftoken=TbsXzJA6X3OjayGBx0DFeCzF9FmD6wU7; session_id_web2clinic=127.0.0.1-82dbaa41-601d-4d76-885f-820601bc79bd; session_id_admin=127.0.0.1-53e12657-4a9f-4982-845f-576399620228</div></td></tr><tr><td style="font-weight:bold;vertical-align:top;">http_dnt</td><td style="vertical-align:top;">:</td><td><div>1</div></td></tr><tr><td style="font-weight:bold;vertical-align:top;">http_host</td><td style="vertical-align:top;">:</td><td><div>127.0.0.1:8000</div></td></tr><tr><td style="font-weight:bold;vertical-align:top;">http_referer</td><td style="vertical-align:top;">:</td><td><div>http://127.0.0.1:8000/web2clinic/pacientes/index</div></td></tr><tr><td style="font-weight:bold;vertical-align:top;">http_user_agent</td><td style="vertical-align:top;">:</td><td><div>Mozilla/5.0 (X11; Linux x86_64; rv:38.0) Gecko/20100101 Firefox/38.0 Iceweasel/38.4.0</div></td></tr><tr><td style="font-weight:bold;vertical-align:top;">is_jython</td><td style="vertical-align:top;">:</td><td><div>False</div></td></tr><tr><td style="font-weight:bold;vertical-align:top;">is_pypy</td><td style="vertical-align:top;">:</td><td><div>False</div></td></tr><tr><td style="font-weight:bold;vertical-align:top;">is_source</td><td style="vertical-align:top;">:</td><td><div>True</div></td></tr><tr><td style="font-weight:bold;vertical-align:top;">local_hosts</td><td style="vertical-align:top;">:</td><td><div><table><tr><td><div>::1</div></td></tr><tr><td><div>127.0.1.1</div></td></tr><tr><td><div>::ffff:127.0.0.1</div></td></tr><tr><td><div>127.0.0.1</div></td></tr><tr><td><div>mmxx</div></td></tr></table></div></td></tr><tr><td style="font-weight:bold;vertical-align:top;">path_info</td><td style="vertical-align:top;">:</td><td><div>/web2clinic/pacientes/nova_consulta</div></td></tr><tr><td style="font-weight:bold;vertical-align:top;">query_string</td><td style="vertical-align:top;">:</td><td><div></div></td></tr><tr><td style="font-weight:bold;vertical-align:top;">remote_addr</td><td style="vertical-align:top;">:</td><td><div>127.0.0.1</div></td></tr><tr><td style="font-weight:bold;vertical-align:top;">remote_port</td><td style="vertical-align:top;">:</td><td><div>53366</div></td></tr><tr><td style="font-weight:bold;vertical-align:top;">request_method</td><td style="vertical-align:top;">:</td><td><div>GET</div></td></tr><tr><td style="font-weight:bold;vertical-align:top;">request_uri</td><td style="vertical-align:top;">:</td><td><div>/web2clinic/pacientes/nova_consulta</div></td></tr><tr><td style="font-weight:bold;vertical-align:top;">script_name</td><td style="vertical-align:top;">:</td><td><div></div></td></tr><tr><td style="font-weight:bold;vertical-align:top;">server_name</td><td style="vertical-align:top;">:</td><td><div>mmxx</div></td></tr><tr><td style="font-weight:bold;vertical-align:top;">server_port</td><td style="vertical-align:top;">:</td><td><div>8000</div></td></tr><tr><td style="font-weight:bold;vertical-align:top;">server_protocol</td><td style="vertical-align:top;">:</td><td><div>HTTP/1.1</div></td></tr><tr><td style="font-weight:bold;vertical-align:top;">server_software</td><td style="vertical-align:top;">:</td><td><div>Rocket 1.2.6</div></td></tr><tr><td style="font-weight:bold;vertical-align:top;">web2py_path</td><td style="vertical-align:top;">:</td><td><div>/home/marcelotheodoro/web2py</div></td></tr><tr><td style="font-weight:bold;vertical-align:top;">web2py_version</td><td style="vertical-align:top;">:</td><td><div>2.12.3-stable+timestamp.2015.08.19.00.18.03</div></td></tr><tr><td style="font-weight:bold;vertical-align:top;">wsgi.errors</td><td style="vertical-align:top;">:</td><td><div>&lt;open file &#x27;&lt;stderr&gt;&#x27;, mode &#x27;w&#x27; at 0x7f0a198001e0&gt;</div></td></tr><tr><td style="font-weight:bold;vertical-align:top;">wsgi.file_wrapper</td><td style="vertical-align:top;">:</td><td><div>&lt;class wsgiref.util.FileWrapper at 0x7f0a15c942c0&gt;</div></td></tr><tr><td style="font-weight:bold;vertical-align:top;">wsgi.input</td><td style="vertical-align:top;">:</td><td><div>&lt;socket._fileobject object at 0x7f09e69347d0&gt;</div></td></tr><tr><td style="font-weight:bold;vertical-align:top;">wsgi.multiprocess</td><td style="vertical-align:top;">:</td><td><div>False</div></td></tr><tr><td style="font-weight:bold;vertical-align:top;">wsgi.multithread</td><td style="vertical-align:top;">:</td><td><div>True</div></td></tr><tr><td style="font-weight:bold;vertical-align:top;">wsgi.run_once</td><td style="vertical-align:top;">:</td><td><div>False</div></td></tr><tr><td style="font-weight:bold;vertical-align:top;">wsgi.url_scheme</td><td style="vertical-align:top;">:</td><td><div>http</div></td></tr><tr><td style="font-weight:bold;vertical-align:top;">wsgi.version</td><td style="vertical-align:top;">:</td><td><div><table><tr><td><div>1</div></td></tr><tr><td><div>0</div></td></tr></table></div></td></tr><tr><td style="font-weight:bold;vertical-align:top;">wsgi_errors</td><td style="vertical-align:top;">:</td><td><div>&lt;open file &#x27;&lt;stderr&gt;&#x27;, mode &#x27;w&#x27; at 0x7f0a198001e0&gt;</div></td></tr><tr><td style="font-weight:bold;vertical-align:top;">wsgi_file_wrapper</td><td style="vertical-align:top;">:</td><td><div>&lt;class wsgiref.util.FileWrapper at 0x7f0a15c942c0&gt;</div></td></tr><tr><td style="font-weight:bold;vertical-align:top;">wsgi_input</td><td style="vertical-align:top;">:</td><td><div>&lt;socket._fileobject object at 0x7f09e69347d0&gt;</div></td></tr><tr><td style="font-weight:bold;vertical-align:top;">wsgi_multiprocess</td><td style="vertical-align:top;">:</td><td><div>False</div></td></tr><tr><td style="font-weight:bold;vertical-align:top;">wsgi_multithread</td><td style="vertical-align:top;">:</td><td><div>True</div></td></tr><tr><td style="font-weight:bold;vertical-align:top;">wsgi_run_once</td><td style="vertical-align:top;">:</td><td><div>False</div></td></tr><tr><td style="font-weight:bold;vertical-align:top;">wsgi_url_scheme</td><td style="vertical-align:top;">:</td><td><div>http</div></td></tr><tr><td style="font-weight:bold;vertical-align:top;">wsgi_version</td><td style="vertical-align:top;">:</td><td><div><table><tr><td><div>1</div></td></tr><tr><td><div>0</div></td></tr></table></div></td></tr></table></div></td></tr><tr><td style="font-weight:bold;vertical-align:top;">extension</td><td style="vertical-align:top;">:</td><td><div>html</div></td></tr><tr><td style="font-weight:bold;vertical-align:top;">folder</td><td style="vertical-align:top;">:</td><td><div>/home/marcelotheodoro/web2py/applications/web2clinic/</div></td></tr><tr><td style="font-weight:bold;vertical-align:top;">function</td><td style="vertical-align:top;">:</td><td><div>nova_consulta</div></td></tr><tr><td style="font-weight:bold;vertical-align:top;">global_settings</td><td style="vertical-align:top;">:</td><td><div><table><tr><td style="font-weight:bold;vertical-align:top;">app_folders</td><td style="vertical-align:top;">:</td><td><div>set([&#x27;/home/marcelotheodoro/web2py/applications/web2clinic/&#x27;, &#x27;/home/marcelotheodoro/web2py/applications/admin/&#x27;])</div></td></tr><tr><td style="font-weight:bold;vertical-align:top;">applications_parent</td><td style="vertical-align:top;">:</td><td><div>/home/marcelotheodoro/web2py</div></td></tr><tr><td style="font-weight:bold;vertical-align:top;">cmd_args</td><td style="vertical-align:top;">:</td><td><div><table></table></div></td></tr><tr><td style="font-weight:bold;vertical-align:top;">cmd_options</td><td style="vertical-align:top;">:</td><td><div>&lt;Values at 0x7f0a15c70ea8: {&#x27;verbose&#x27;: False, &#x27;ip&#x27;: &#x27;127.0.0.1&#x27;, &#x27;debuglevel&#x27;: 30, &#x27;with_scheduler&#x27;: False, &#x27;ips&#x27;: [&#x27;127.0.1.1&#x27;], &#x27;shutdown_timeout&#x27;: 5, &#x27;taskbar&#x27;: False, &#x27;with_coverage&#x27;: False, &#x27;scheduler_groups&#x27;: None, &#x27;port&#x27;: 8000, &#x27;maxthreads&#x27;: None, &#x27;softcron&#x27;: False, &#x27;server_name&#x27;: &#x27;mmxx&#x27;, &#x27;bpython&#x27;: False, &#x27;nogui&#x27;: False, &#x27;pid_filename&#x27;: &#x27;httpserver.pid&#x27;, &#x27;print_errors&#x27;: False, &#x27;extcron&#x27;: False, &#x27;runcron&#x27;: False, &#x27;run_system_tests&#x27;: False, &#x27;test&#x27;: None, &#x27;folder&#x27;: &#x27;/home/marcelotheodoro/web2py&#x27;, &#x27;config&#x27;: &#x27;&#x27;, &#x27;minthreads&#x27;: None, &#x27;shell&#x27;: None, &#x27;run&#x27;: &#x27;&#x27;, &#x27;log_filename&#x27;: &#x27;httpserver.log&#x27;, &#x27;profiler_dir&#x27;: None, &#x27;args&#x27;: [&#x27;&#x27;], &#x27;socket_timeout&#x27;: 5, &#x27;ssl_ca_certificate&#x27;: None, &#x27;scheduler&#x27;: None, &#x27;interfaces&#x27;: None, &#x27;ssl_private_key&#x27;: &#x27;&#x27;, &#x27;gae&#x27;: None, &#x27;password&#x27;: &#x27;123&#x27;, &#x27;request_queue_size&#x27;: 5, &#x27;ssl_certificate&#x27;: &#x27;&#x27;, &#x27;cronjob&#x27;: False, &#x27;numthreads&#x27;: None, &#x27;quiet&#x27;: False, &#x27;import_models&#x27;: False, &#x27;timeout&#x27;: 10, &#x27;plain&#x27;: False, &#x27;nobanner&#x27;: False}&gt;</div></td></tr><tr><td style="font-weight:bold;vertical-align:top;">db_sessions</td><td style="vertical-align:top;">:</td><td><div>set([])</div></td></tr><tr><td style="font-weight:bold;vertical-align:top;">debugging</td><td style="vertical-align:top;">:</td><td><div>False</div></td></tr><tr><td style="font-weight:bold;vertical-align:top;">gluon_parent</td><td style="vertical-align:top;">:</td><td><div>/home/marcelotheodoro/web2py</div></td></tr><tr><td style="font-weight:bold;vertical-align:top;">is_jython</td><td style="vertical-align:top;">:</td><td><div>False</div></td></tr><tr><td style="font-weight:bold;vertical-align:top;">is_pypy</td><td style="vertical-align:top;">:</td><td><div>False</div></td></tr><tr><td style="font-weight:bold;vertical-align:top;">is_source</td><td style="vertical-align:top;">:</td><td><div>True</div></td></tr><tr><td style="font-weight:bold;vertical-align:top;">local_hosts</td><td style="vertical-align:top;">:</td><td><div><table><tr><td><div>::1</div></td></tr><tr><td><div>127.0.1.1</div></td></tr><tr><td><div>::ffff:127.0.0.1</div></td></tr><tr><td><div>127.0.0.1</div></td></tr><tr><td><div>mmxx</div></td></tr></table></div></td></tr><tr><td style="font-weight:bold;vertical-align:top;">web2py_version</td><td style="vertical-align:top;">:</td><td><div>2.12.3-stable+timestamp.2015.08.19.00.18.03</div></td></tr></table></div></td></tr><tr><td style="font-weight:bold;vertical-align:top;">is_https</td><td style="vertical-align:top;">:</td><td><div>False</div></td></tr><tr><td style="font-weight:bold;vertical-align:top;">is_local</td><td style="vertical-align:top;">:</td><td><div>True</div></td></tr><tr><td style="font-weight:bold;vertical-align:top;">is_restful</td><td style="vertical-align:top;">:</td><td><div>False</div></td></tr><tr><td style="font-weight:bold;vertical-align:top;">is_sheduler</td><td style="vertical-align:top;">:</td><td><div>None</div></td></tr><tr><td style="font-weight:bold;vertical-align:top;">is_shell</td><td style="vertical-align:top;">:</td><td><div>None</div></td></tr><tr><td style="font-weight:bold;vertical-align:top;">now</td><td style="vertical-align:top;">:</td><td><div>datetime.datetime(2015, 11, 12, 15, 8, 29, 336818)</div></td></tr><tr><td style="font-weight:bold;vertical-align:top;">raw_args</td><td style="vertical-align:top;">:</td><td><div></div></td></tr><tr><td style="font-weight:bold;vertical-align:top;">raw_extension</td><td style="vertical-align:top;">:</td><td><div>None</div></td></tr><tr><td style="font-weight:bold;vertical-align:top;">url</td><td style="vertical-align:top;">:</td><td><div>/web2clinic/pacientes/nova_consulta</div></td></tr><tr><td style="font-weight:bold;vertical-align:top;">utcnow</td><td style="vertical-align:top;">:</td><td><div>datetime.datetime(2015, 11, 12, 17, 8, 29, 336845)</div></td></tr><tr><td style="font-weight:bold;vertical-align:top;">wsgi</td><td style="vertical-align:top;">:</td><td><div>&lt;gluon.main.LazyWSGI object at 0x7f0a17c28b50&gt;</div></td></tr></table></div>'
tRp58
sS'frames'
p59
(lp60
(dp61
S'file'
p62
S'/home/marcelotheodoro/web2py/gluon/restricted.py'
p63
sS'dump'
p64
(dp65
S'environment'
p66
S"{'A': <class 'gluon.html.A'>, 'ANY_OF': <class 'gluon.validators.ANY_OF'>, 'ASSIGNJS': <function ASSIGNJS>, 'Auth': <class 'gluon.tools.Auth'>, 'B': <class 'gluon.html.B'>, 'BEAUTIFY': <class 'gluon.html.BEAUTIFY'>, 'BODY': <class 'gluon.html.BODY'>, 'BR': <class 'gluon.html.BR'>, 'BUTTON': <class 'gluon.html.BUTTON'>, 'CAT': <class 'gluon.html.CAT'>, ...}"
p67
sS'ccode'
p68
S'<code object <module> at 0x7f0a040dcb30, file "/...tions/web2clinic/models/3formularios.py", line 2>'
p69
ssS'lnum'
p70
I227
sS'lines'
p71
(dp72
I224
S'            ccode = code'
p73
sI225
S'        else:'
p74
sI226
S'            ccode = compile2(code, layer)'
p75
sI227
S'        exec ccode in environment'
p76
sI228
S'    except HTTP:'
p77
sI229
S'        raise'
p78
sI230
S'    except RestrictedError:'
p79
sI231
S'        # do not encapsulate (obfuscate) the original RestrictedError'
p80
sI222
S'    try:'
p81
sI223
S'        if isinstance(code, types.CodeType):'
p82
ssS'call'
p83
S'(code="\\ndb.define_table(\'ficha_clinica_mulher\',\\n       ...   Field(\'data\', type=\'date\'),\\n                )\\n", environment={\'A\': <class \'gluon.html.A\'>, \'ANY_OF\': <class \'gluon.validators.ANY_OF\'>, \'ASSIGNJS\': <function ASSIGNJS>, \'Auth\': <class \'gluon.tools.Auth\'>, \'B\': <class \'gluon.html.B\'>, \'BEAUTIFY\': <class \'gluon.html.BEAUTIFY\'>, \'BODY\': <class \'gluon.html.BODY\'>, \'BR\': <class \'gluon.html.BR\'>, \'BUTTON\': <class \'gluon.html.BUTTON\'>, \'CAT\': <class \'gluon.html.CAT\'>, ...}, layer=\'/home/marcelotheodoro/web2py/applications/web2clinic/models/3formularios.py\')'
p84
sS'func'
p85
S'restricted'
p86
sa(dp87
g62
S'/home/marcelotheodoro/web2py/applications/web2clinic/models/3formularios.py'
p88
sg64
(dp89
S'Field'
p90
S"<class 'pydal.objects.Field'>"
p91
sS'builtintype'
p92
S"<type 'type'>"
p93
ssg70
I910
sg71
(dp94
I902
S"             Field('colo_ESPECULAR', type='text'),"
p95
sI903
S"             Field('cont_vaginal_ESPECULAR', type='text'),"
p96
sI904
S'            )'
p97
sI905
S''
sI906
S"db.define_table('retorno',"
p98
sI907
S"                Field('id_paciente', 'reference',"
p99
sI908
S'                      readable=False, writable=False),'
p100
sI909
S"                Field('texto', 'text'),"
p101
sI910
S"                Field('data', type='date'),"
p102
sI911
S'                )'
p103
ssg83
S'()'
p104
sg85
S'<module>'
p105
sa(dp106
g62
S'/home/marcelotheodoro/web2py/gluon/packages/dal/pydal/base.py'
p107
sg64
(dp108
S'fields'
p109
S'(<pydal.objects.Field object>, <pydal.objects.Field object>, <pydal.objects.Field object>)'
p110
sS'self'
p111
S'<DAL uri="sqlite://storage.sqlite">'
p112
sS'args'
p113
g45
sS'tablename'
p114
S"'retorno'"
p115
sS'table'
p116
S'undefined'
p117
sS'self.lazy_define_table'
p118
S'<bound method DAL.lazy_define_table of <DAL uri="sqlite://storage.sqlite">>'
p119
ssg70
I819
sg71
(dp120
I814
S'                    % (tablename,invalid_args))'
p121
sI815
S'        if self._lazy_tables and tablename not in self._LAZY_TABLES:'
p122
sI816
S'            self._LAZY_TABLES[tablename] = (tablename,fields,args)'
p123
sI817
S'            table = None'
p124
sI818
S'        else:'
p125
sI819
S'            table = self.lazy_define_table(tablename,*fields,**args)'
p126
sI820
S'        if not tablename in self.tables:'
p127
sI821
S'            self.tables.append(tablename)'
p128
sI822
S'        return table'
p129
sI823
S''
ssg83
S'(self=<DAL uri="sqlite://storage.sqlite">, tablename=\'retorno\', *fields=(<pydal.objects.Field object>, <pydal.objects.Field object>, <pydal.objects.Field object>), **args={})'
p130
sg85
S'define_table'
p131
sa(dp132
g62
S'/home/marcelotheodoro/web2py/gluon/packages/dal/pydal/base.py'
p133
sg64
(dp134
S'polymodel'
p135
S'None'
p136
ssg70
I858
sg71
(dp137
I853
S'            try:'
p138
sI854
S'                GLOBAL_LOCKER.acquire()'
p139
sI855
S'                self._lastsql = self._adapter.create_table('
p140
sI856
S'                    table,migrate=migrate,'
p141
sI857
S'                    fake_migrate=fake_migrate,'
p142
sI858
S'                    polymodel=polymodel)'
p143
sI859
S'            finally:'
p144
sI860
S'                GLOBAL_LOCKER.release()'
p145
sI861
S'        else:'
p146
sI862
S'            table._dbt = None'
p147
ssg83
S'(self=<DAL uri="sqlite://storage.sqlite">, tablename=\'retorno\', *fields=(<pydal.objects.Field object>, <pydal.objects.Field object>, <pydal.objects.Field object>), **args={})'
p148
sg85
S'lazy_define_table'
p149
sa(dp150
g62
S'/home/marcelotheodoro/web2py/gluon/packages/dal/pydal/adapters/base.py'
p151
sg64
(dp152
S'table'
p153
S'<Table retorno (id,id_paciente,texto,data)>'
p154
sS'table._tablename'
p155
S"'retorno'"
p156
sS'referenced'
p157
S"''"
p158
sS'builtinKeyError'
p159
S"<type 'exceptions.KeyError'>"
p160
ssg70
I287
sg71
(dp161
I288
S''
sI289
S'                # must be PK reference or unique'
p162
sI290
S"                if getattr(rtable, '_primarykey', None) and rfieldname in rtable._primarykey or \\"
p163
sI291
S'                        rfield.unique:'
p164
sI282
S"                        rtablename,rfieldname = referenced.split('.')"
p165
sI283
S'                        rtable = db[rtablename]'
p166
sI284
S'                        rfield = rtable[rfieldname]'
p167
sI285
S'                    except Exception as e:'
p168
sI286
S"                        self.db.logger.debug('Error: %s' %e)"
p169
sI287
S"                        raise KeyError('Cannot resolve reference %s in %s definition' % (referenced, table._tablename))"
p170
ssg83
S'(self=<pydal.adapters.sqlite.SQLiteAdapter object>, table=<Table retorno (id,id_paciente,texto,data)>, migrate=True, fake_migrate=False, polymodel=None)'
p171
sg85
S'create_table'
p172
sasS'pyver'
p173
S'Python 2.7.9: /usr/bin/python (prefix: /usr)'
p174
sS'session'
p175
g57
(S's\x1a\x00\x00\x00<div><table></table></div>'
tRp176
sS'etype'
p177
S"<type 'exceptions.KeyError'>"
p178
sS'date'
p179
S'Thu Nov 12 15:08:29 2015'
p180
sS'response'
p181
g57
(S's\xdb\x1f\x00\x00<div><table><tr><td style="font-weight:bold;vertical-align:top;">body</td><td style="vertical-align:top;">:</td><td><div>&lt;cStringIO.StringO object at 0x7f0a040ce4c8&gt;</div></td></tr><tr><td style="font-weight:bold;vertical-align:top;">cookies</td><td style="vertical-align:top;">:</td><td><div><table><tr><td style="font-weight:bold;vertical-align:top;">session_id_web2clinic</td><td style="vertical-align:top;">:</td><td><div>127.0.0.1-82dbaa41-601d-4d76-885f-820601bc79bd<table><tr><td style="font-weight:bold;vertical-align:top;">comment</td><td style="vertical-align:top;">:</td><td><div></div></td></tr><tr><td style="font-weight:bold;vertical-align:top;">domain</td><td style="vertical-align:top;">:</td><td><div></div></td></tr><tr><td style="font-weight:bold;vertical-align:top;">expires</td><td style="vertical-align:top;">:</td><td><div></div></td></tr><tr><td style="font-weight:bold;vertical-align:top;">httponly</td><td style="vertical-align:top;">:</td><td><div></div></td></tr><tr><td style="font-weight:bold;vertical-align:top;">max-age</td><td style="vertical-align:top;">:</td><td><div></div></td></tr><tr><td style="font-weight:bold;vertical-align:top;">path</td><td style="vertical-align:top;">:</td><td><div>/</div></td></tr><tr><td style="font-weight:bold;vertical-align:top;">secure</td><td style="vertical-align:top;">:</td><td><div></div></td></tr><tr><td style="font-weight:bold;vertical-align:top;">version</td><td style="vertical-align:top;">:</td><td><div></div></td></tr></table></div></td></tr></table></div></td></tr><tr><td style="font-weight:bold;vertical-align:top;">delimiters</td><td style="vertical-align:top;">:</td><td><div><table><tr><td><div>{{</div></td></tr><tr><td><div>}}</div></td></tr></table></div></td></tr><tr><td style="font-weight:bold;vertical-align:top;">files</td><td style="vertical-align:top;">:</td><td><div><table></table></div></td></tr><tr><td style="font-weight:bold;vertical-align:top;">flash</td><td style="vertical-align:top;">:</td><td><div></div></td></tr><tr><td style="font-weight:bold;vertical-align:top;">form_label_separator</td><td style="vertical-align:top;">:</td><td><div></div></td></tr><tr><td style="font-weight:bold;vertical-align:top;">formstyle</td><td style="vertical-align:top;">:</td><td><div>bootstrap3_inline</div></td></tr><tr><td style="font-weight:bold;vertical-align:top;">generic_patterns</td><td style="vertical-align:top;">:</td><td><div><table><tr><td><div>*</div></td></tr></table></div></td></tr><tr><td style="font-weight:bold;vertical-align:top;">headers</td><td style="vertical-align:top;">:</td><td><div><table><tr><td style="font-weight:bold;vertical-align:top;">X-Powered-By</td><td style="vertical-align:top;">:</td><td><div>web2py</div></td></tr></table></div></td></tr><tr><td style="font-weight:bold;vertical-align:top;">menu</td><td style="vertical-align:top;">:</td><td><div><table><tr><td><div><table><tr><td><div>Home</div></td></tr><tr><td><div>False</div></td></tr><tr><td><div>/web2clinic/pacientes/index</div></td></tr><tr><td><div><table></table></div></td></tr></table></div></td></tr><tr><td><div><table><tr><td><div>Agendamentos</div></td></tr><tr><td><div>False</div></td></tr><tr><td><div>/web2clinic/pacientes/#</div></td></tr><tr><td><div><table><tr><td><div><table><tr><td><div>Novo agendamento</div></td></tr><tr><td><div>False</div></td></tr><tr><td><div>/web2clinic/pacientes/novo_agendamento</div></td></tr></table></div></td></tr><tr><td><div><table><tr><td><div>Ver todos agendamentos</div></td></tr><tr><td><div>False</div></td></tr><tr><td><div>/web2clinic/pacientes/agendamentos</div></td></tr></table></div></td></tr></table></div></td></tr></table></div></td></tr><tr><td><div><table><tr><td><div>Pacientes</div></td></tr><tr><td><div>False</div></td></tr><tr><td><div>/web2clinic/pacientes/#</div></td></tr><tr><td><div><table><tr><td><div><table><tr><td><div>Novo cadastro</div></td></tr><tr><td><div>False</div></td></tr><tr><td><div>/web2clinic/pacientes/cadastrar</div></td></tr></table></div></td></tr><tr><td><div><table><tr><td><div>Todos cadastros</div></td></tr><tr><td><div>False</div></td></tr><tr><td><div>/web2clinic/pacientes/pacientes</div></td></tr></table></div></td></tr></table></div></td></tr></table></div></td></tr><tr><td><div><table><tr><td><div>Consultas</div></td></tr><tr><td><div>False</div></td></tr><tr><td><div>/web2clinic/pacientes/#</div></td></tr><tr><td><div><table><tr><td><div><table><tr><td><div>Nova consulta</div></td></tr><tr><td><div>False</div></td></tr><tr><td><div>/web2clinic/pacientes/nova_consulta</div></td></tr></table></div></td></tr><tr><td><div><table><tr><td><div>Todas consultas</div></td></tr><tr><td><div>False</div></td></tr><tr><td><div>/web2clinic/pacientes/todas_consultas</div></td></tr></table></div></td></tr></table></div></td></tr></table></div></td></tr></table></div></td></tr><tr><td style="font-weight:bold;vertical-align:top;">meta</td><td style="vertical-align:top;">:</td><td><div><table></table></div></td></tr><tr><td style="font-weight:bold;vertical-align:top;">models_to_run</td><td style="vertical-align:top;">:</td><td><div><table><tr><td><div>^\\w+\\.py$</div></td></tr><tr><td><div>^pacientes/\\w+\\.py$</div></td></tr><tr><td><div>^pacientes/nova_consulta/\\w+\\.py$</div></td></tr></table></div></td></tr><tr><td style="font-weight:bold;vertical-align:top;">postprocessing</td><td style="vertical-align:top;">:</td><td><div><table></table></div></td></tr><tr><td style="font-weight:bold;vertical-align:top;">session_client</td><td style="vertical-align:top;">:</td><td><div>127.0.0.1</div></td></tr><tr><td style="font-weight:bold;vertical-align:top;">session_cookie_compression_level</td><td style="vertical-align:top;">:</td><td><div>None</div></td></tr><tr><td style="font-weight:bold;vertical-align:top;">session_cookie_expires</td><td style="vertical-align:top;">:</td><td><div>None</div></td></tr><tr><td style="font-weight:bold;vertical-align:top;">session_cookie_key</td><td style="vertical-align:top;">:</td><td><div>None</div></td></tr><tr><td style="font-weight:bold;vertical-align:top;">session_data_name</td><td style="vertical-align:top;">:</td><td><div>session_data_web2clinic</div></td></tr><tr><td style="font-weight:bold;vertical-align:top;">session_file</td><td style="vertical-align:top;">:</td><td><div>&lt;open file &#x27;/home/marcelotheodoro/web2py/applications/web2clinic/sessions/10d/015/127.0.0.1-82dbaa41-601d-4d76-885f-820601bc79bd&#x27;, mode &#x27;rb+&#x27; at 0x7f0a040cf030&gt;</div></td></tr><tr><td style="font-weight:bold;vertical-align:top;">session_filename</td><td style="vertical-align:top;">:</td><td><div>/home/marcelotheodoro/web2py/applications/web2clinic/sessions/127.0.0.1-82dbaa41-601d-4d76-885f-820601bc79bd</div></td></tr><tr><td style="font-weight:bold;vertical-align:top;">session_hash</td><td style="vertical-align:top;">:</td><td><div>a5dac62a1a47209ac032a0894413a48d</div></td></tr><tr><td style="font-weight:bold;vertical-align:top;">session_id</td><td style="vertical-align:top;">:</td><td><div>127.0.0.1-82dbaa41-601d-4d76-885f-820601bc79bd</div></td></tr><tr><td style="font-weight:bold;vertical-align:top;">session_id_name</td><td style="vertical-align:top;">:</td><td><div>session_id_web2clinic</div></td></tr><tr><td style="font-weight:bold;vertical-align:top;">session_locked</td><td style="vertical-align:top;">:</td><td><div>True</div></td></tr><tr><td style="font-weight:bold;vertical-align:top;">session_masterapp</td><td style="vertical-align:top;">:</td><td><div>web2clinic</div></td></tr><tr><td style="font-weight:bold;vertical-align:top;">session_new</td><td style="vertical-align:top;">:</td><td><div>False</div></td></tr><tr><td style="font-weight:bold;vertical-align:top;">session_storage_type</td><td style="vertical-align:top;">:</td><td><div>file</div></td></tr><tr><td style="font-weight:bold;vertical-align:top;">status</td><td style="vertical-align:top;">:</td><td><div>200</div></td></tr><tr><td style="font-weight:bold;vertical-align:top;">view</td><td style="vertical-align:top;">:</td><td><div>pacientes/nova_consulta.html</div></td></tr></table></div>'
tRp182
sS'locals'
p183
(dp184
S'referenced'
p185
S"''"
p186
sS'migrate'
p187
S'True'
p188
sS'constraint_name'
p189
S"'retorno_id_paciente__constraint'"
p190
sS'table'
p191
S'<Table retorno (id,id_paciente,texto,data)>'
p192
sS'postcreation_fields'
p193
S'[]'
p194
sS'field_type'
p195
S"'reference'"
p196
sS'self'
p197
S'<pydal.adapters.sqlite.SQLiteAdapter object>'
p198
sS'type_name'
p199
S"'reference'"
p200
sS'tablename'
p201
S"'retorno'"
p202
sS'field'
p203
S'<pydal.objects.Field object>'
p204
sS'ftype'
p205
S"'INTEGER PRIMARY KEY AUTOINCREMENT'"
p206
sS'polymodel'
p207
S'None'
p208
sS'db'
p209
S'<DAL uri="sqlite://storage.sqlite">'
p210
sS'fake_migrate'
p211
S'False'
p212
sS'e'
S"ValueError('need more than 1 value to unpack',)"
p213
sS'sql_fields'
p214
S"{'id': {'length': 512, 'notnull': False, 'sortable': 1, 'sql': 'INTEGER PRIMARY KEY AUTOINCREMENT', 'type': 'id', 'unique': False}}"
p215
sS'field_name'
p216
S"'id_paciente'"
p217
sS'types'
p218
S"{'big-id': 'INTEGER PRIMARY KEY AUTOINCREMENT', 'big-reference': 'INTEGER REFERENCES %(foreign_key)s ON DELETE %(on_delete_action)s %(null)s %(unique)s', 'bigint': 'INTEGER', 'blob': 'BLOB', 'boolean': 'CHAR(1)', 'date': 'DATE', 'datetime': 'TIMESTAMP', 'decimal': 'DOUBLE', 'double': 'DOUBLE', 'float': 'DOUBLE', ...}"
p219
sS'sortable'
p220
S'2'
sS'sql_fields_aux'
p221
S"{'id': {'sql': 'INTEGER PRIMARY KEY AUTOINCREMENT'}}"
p222
sS'TFK'
p223
g45
sS'fields'
p224
S"['id INTEGER PRIMARY KEY AUTOINCREMENT']"
p225
sssS'traceback'
p226
S'Traceback (most recent call last):\n  File "/home/marcelotheodoro/web2py/gluon/restricted.py", line 227, in restricted\n    exec ccode in environment\n  File "/home/marcelotheodoro/web2py/applications/web2clinic/models/3formularios.py", line 910, in <module>\n    Field(\'data\', type=\'date\'),\n  File "/home/marcelotheodoro/web2py/gluon/packages/dal/pydal/base.py", line 819, in define_table\n    table = self.lazy_define_table(tablename,*fields,**args)\n  File "/home/marcelotheodoro/web2py/gluon/packages/dal/pydal/base.py", line 858, in lazy_define_table\n    polymodel=polymodel)\n  File "/home/marcelotheodoro/web2py/gluon/packages/dal/pydal/adapters/base.py", line 287, in create_table\n    raise KeyError(\'Cannot resolve reference %s in %s definition\' % (referenced, table._tablename))\nKeyError: \'Cannot resolve reference  in retorno definition\'\n'
p227
s.